; ModuleID = '/users/deastir/mcaceres/Documents/VIVADO/TP_Vivado_HLS/TP_Vivado_HLS/gaussian/solution1/.autopilot/db/a.g.1.bc'
target datalayout = "e-p:64:64:64-i1:8:8-i8:8:8-i16:16:16-i32:32:32-i64:64:64-f32:32:32-f64:64:64-v64:64:64-v128:128:128-a0:0:64-s0:64:64-f80:128:128-n8:16:32:64"
target triple = "x86_64-unknown-linux-gnu"

%0 = type { i32, void ()* }
%"struct.std::ios_base::Init" = type <{ i8 }>

@.str = private constant [10 x i8] c"ap_memory\00", align 1 ; <[10 x i8]*> [#uses=1]
@.str1 = private constant [1 x i8] zeroinitializer, align 1 ; <[1 x i8]*> [#uses=1]
@tmp = internal constant [1920 x float] zeroinitializer, align 32 ; <[1920 x float]*> [#uses=0]
@.str2 = private constant [31 x i8] c"gaussian_1line_label0_pipeline\00", align 8 ; <[31 x i8]*> [#uses=0]
@.str13 = private constant [1 x i8] zeroinitializer, align 1 ; <[1 x i8]*> [#uses=0]
@llvm.global_ctors = appending global [1 x %0] [%0 { i32 65535, void ()* @_GLOBAL__I__Z19gaussian_fixedPointPA1920_tS0_ }] ; <[1 x %0]*> [#uses=0]
@llvm.global_dtors = appending global [1 x %0] [%0 { i32 65535, void ()* @_GLOBAL__D__Z19gaussian_fixedPointPA1920_tS0_ }] ; <[1 x %0]*> [#uses=0]
@.str7 = private constant [36 x i8] c"gaussian_scalarized_label0_pipeline\00", align 8 ; <[36 x i8]*> [#uses=1]
@.str18 = private constant [1 x i8] zeroinitializer, align 1 ; <[1 x i8]*> [#uses=1]

define void @gaussian([1920 x i16]* %in, [1920 x i16]* %out) nounwind {
entry:
  call void @llvm.dbg.value(metadata !{[1920 x i16]* %in}, i64 0, metadata !876)
  call void @llvm.dbg.value(metadata !{[1920 x i16]* %out}, i64 0, metadata !885)
  call void (...)* @_ssdm_SpecArrayDimSize([1920 x i16]* %in, i32 1080) nounwind, !dbg !886
  call void (...)* @_ssdm_SpecArrayDimSize([1920 x i16]* %out, i32 1080) nounwind, !dbg !886
  call void (...)* @_ssdm_op_SpecMem([1920 x i16]* %in, i8* getelementptr inbounds ([10 x i8]* @.str, i64 0, i64 0), i32 0, i32 0, i32 0, i8* getelementptr inbounds ([1 x i8]* @.str1, i64 0, i64 0)) nounwind, !dbg !888
  call void (...)* @_ssdm_op_SpecMem([1920 x i16]* %out, i8* getelementptr inbounds ([10 x i8]* @.str, i64 0, i64 0), i32 0, i32 0, i32 0, i8* getelementptr inbounds ([1 x i8]* @.str1, i64 0, i64 0)) nounwind, !dbg !889
  call fastcc void @gaussian_scalarized([1920 x i16]* %in, [1920 x i16]* %out) nounwind, !dbg !890
  ret void, !dbg !891
}

declare void @llvm.dbg.declare(metadata, metadata) nounwind readnone

declare void @_ssdm_SpecArrayDimSize(...) nounwind

declare void @_ssdm_op_SpecMem(...) nounwind

declare void @_ssdm_op_SpecLoopName(...) nounwind

declare void @_ssdm_RegionBegin(...) nounwind

declare void @_ssdm_op_SpecPipeline(...) nounwind

declare void @_ssdm_RegionEnd(...) nounwind

declare void @_ZNSt8ios_base4InitC1Ev(%"struct.std::ios_base::Init"*)

declare void @_ZNSt8ios_base4InitD1Ev(%"struct.std::ios_base::Init"*)

define internal fastcc void @gaussian_scalarized([1920 x i16]* %in, [1920 x i16]* %out) nounwind {
entry:
  call void @llvm.dbg.value(metadata !{[1920 x i16]* %in}, i64 0, metadata !892)
  call void @llvm.dbg.value(metadata !{[1920 x i16]* %out}, i64 0, metadata !899)
  call void (...)* @_ssdm_SpecArrayDimSize([1920 x i16]* %in, i32 1080) nounwind, !dbg !900
  call void (...)* @_ssdm_SpecArrayDimSize([1920 x i16]* %out, i32 1080) nounwind, !dbg !900
  br label %bb4, !dbg !903

bb:                                               ; preds = %bb4
  call void (...)* @_ssdm_SpecKeepArrayLoad(float 0x3FCF91E640000000) nounwind
  %tmp.1 = sext i32 %indvar1 to i64, !dbg !904    ; <i64> [#uses=3]
  %in.addr = getelementptr inbounds [1920 x i16]* %in, i64 %tmp.1, i64 0, !dbg !904 ; <i16*> [#uses=1]
  %in.load = load i16* %in.addr, align 2, !dbg !904 ; <i16> [#uses=2]
  call void (...)* @_ssdm_SpecKeepArrayLoad(i16 %in.load) nounwind
  %tmp.2 = zext i16 %in.load to i32, !dbg !904    ; <i32> [#uses=1]
  %tmp.3 = sitofp i32 %tmp.2 to float, !dbg !904  ; <float> [#uses=1]
  %tmp.4 = fmul float %tmp.3, 0x3FCF91E640000000, !dbg !904 ; <float> [#uses=1]
  call void (...)* @_ssdm_SpecKeepArrayLoad(float 0x3FE36A2B20000000) nounwind
  %tmp.5 = sext i32 %i to i64, !dbg !904          ; <i64> [#uses=4]
  %in.addr.1 = getelementptr inbounds [1920 x i16]* %in, i64 %tmp.5, i64 0, !dbg !904 ; <i16*> [#uses=1]
  %in.load.1 = load i16* %in.addr.1, align 2, !dbg !904 ; <i16> [#uses=2]
  call void (...)* @_ssdm_SpecKeepArrayLoad(i16 %in.load.1) nounwind
  %tmp.6 = zext i16 %in.load.1 to i32, !dbg !904  ; <i32> [#uses=1]
  %tmp.7 = sitofp i32 %tmp.6 to float, !dbg !904  ; <float> [#uses=1]
  %tmp.8 = fmul float %tmp.7, 0x3FE36A2B20000000, !dbg !904 ; <float> [#uses=1]
  %tmp.9 = fadd float %tmp.4, %tmp.8, !dbg !904   ; <float> [#uses=1]
  call void (...)* @_ssdm_SpecKeepArrayLoad(float 0x3FCF91E640000000) nounwind
  %tmp.10 = sext i32 %tmp to i64, !dbg !904       ; <i64> [#uses=3]
  %in.addr.2 = getelementptr inbounds [1920 x i16]* %in, i64 %tmp.10, i64 0, !dbg !904 ; <i16*> [#uses=1]
  %in.load.2 = load i16* %in.addr.2, align 2, !dbg !904 ; <i16> [#uses=2]
  call void (...)* @_ssdm_SpecKeepArrayLoad(i16 %in.load.2) nounwind
  %tmp.11 = zext i16 %in.load.2 to i32, !dbg !904 ; <i32> [#uses=1]
  %tmp.12 = sitofp i32 %tmp.11 to float, !dbg !904 ; <float> [#uses=1]
  %tmp.13 = fmul float %tmp.12, 0x3FCF91E640000000, !dbg !904 ; <float> [#uses=1]
  %tmp0 = fadd float %tmp.9, %tmp.13, !dbg !904   ; <float> [#uses=1]
  call void @llvm.dbg.value(metadata !{float %tmp0}, i64 0, metadata !905), !dbg !904
  call void (...)* @_ssdm_SpecKeepArrayLoad(float 0x3FCF91E640000000) nounwind
  %in.addr.3 = getelementptr inbounds [1920 x i16]* %in, i64 %tmp.1, i64 1, !dbg !906 ; <i16*> [#uses=1]
  %in.load.3 = load i16* %in.addr.3, align 2, !dbg !906 ; <i16> [#uses=2]
  call void (...)* @_ssdm_SpecKeepArrayLoad(i16 %in.load.3) nounwind
  %tmp.15 = zext i16 %in.load.3 to i32, !dbg !906 ; <i32> [#uses=1]
  %tmp.16 = sitofp i32 %tmp.15 to float, !dbg !906 ; <float> [#uses=1]
  %tmp.17 = fmul float %tmp.16, 0x3FCF91E640000000, !dbg !906 ; <float> [#uses=1]
  call void (...)* @_ssdm_SpecKeepArrayLoad(float 0x3FE36A2B20000000) nounwind
  %in.addr.4 = getelementptr inbounds [1920 x i16]* %in, i64 %tmp.5, i64 1, !dbg !906 ; <i16*> [#uses=1]
  %in.load.4 = load i16* %in.addr.4, align 2, !dbg !906 ; <i16> [#uses=2]
  call void (...)* @_ssdm_SpecKeepArrayLoad(i16 %in.load.4) nounwind
  %tmp.18 = zext i16 %in.load.4 to i32, !dbg !906 ; <i32> [#uses=1]
  %tmp.19 = sitofp i32 %tmp.18 to float, !dbg !906 ; <float> [#uses=1]
  %tmp.20 = fmul float %tmp.19, 0x3FE36A2B20000000, !dbg !906 ; <float> [#uses=1]
  %tmp.21 = fadd float %tmp.17, %tmp.20, !dbg !906 ; <float> [#uses=1]
  call void (...)* @_ssdm_SpecKeepArrayLoad(float 0x3FCF91E640000000) nounwind
  %in.addr.5 = getelementptr inbounds [1920 x i16]* %in, i64 %tmp.10, i64 1, !dbg !906 ; <i16*> [#uses=1]
  %in.load.5 = load i16* %in.addr.5, align 2, !dbg !906 ; <i16> [#uses=2]
  call void (...)* @_ssdm_SpecKeepArrayLoad(i16 %in.load.5) nounwind
  %tmp.22 = zext i16 %in.load.5 to i32, !dbg !906 ; <i32> [#uses=1]
  %tmp.23 = sitofp i32 %tmp.22 to float, !dbg !906 ; <float> [#uses=1]
  %tmp.24 = fmul float %tmp.23, 0x3FCF91E640000000, !dbg !906 ; <float> [#uses=1]
  %tmp1 = fadd float %tmp.21, %tmp.24, !dbg !906  ; <float> [#uses=1]
  call void @llvm.dbg.value(metadata !{float %tmp1}, i64 0, metadata !907), !dbg !906
  br label %bb2, !dbg !908

bb1:                                              ; preds = %bb2
  call void (...)* @_ssdm_op_SpecLoopName(i8* getelementptr inbounds ([36 x i8]* @.str7, i64 0, i64 0)) nounwind, !dbg !908
  %rbegin = call i32 (...)* @_ssdm_op_SpecRegionBegin(i8* getelementptr inbounds ([36 x i8]* @.str7, i64 0, i64 0)) nounwind, !dbg !908 ; <i32> [#uses=1]
  call void (...)* @_ssdm_op_SpecPipeline(i32 1, i32 1, i32 1, i8* getelementptr inbounds ([1 x i8]* @.str18, i64 0, i64 0)) nounwind, !dbg !909
  call void (...)* @_ssdm_SpecKeepArrayLoad(float 0x3FCF91E640000000) nounwind
  %tmp.26 = sext i32 %j to i64, !dbg !909         ; <i64> [#uses=3]
  %in.addr.6 = getelementptr inbounds [1920 x i16]* %in, i64 %tmp.1, i64 %tmp.26, !dbg !909 ; <i16*> [#uses=1]
  %in.load.6 = load i16* %in.addr.6, align 2, !dbg !909 ; <i16> [#uses=2]
  call void (...)* @_ssdm_SpecKeepArrayLoad(i16 %in.load.6) nounwind
  %tmp.27 = zext i16 %in.load.6 to i32, !dbg !909 ; <i32> [#uses=1]
  %tmp.28 = sitofp i32 %tmp.27 to float, !dbg !909 ; <float> [#uses=1]
  %tmp.29 = fmul float %tmp.28, 0x3FCF91E640000000, !dbg !909 ; <float> [#uses=1]
  call void (...)* @_ssdm_SpecKeepArrayLoad(float 0x3FE36A2B20000000) nounwind
  %in.addr.7 = getelementptr inbounds [1920 x i16]* %in, i64 %tmp.5, i64 %tmp.26, !dbg !909 ; <i16*> [#uses=1]
  %in.load.7 = load i16* %in.addr.7, align 2, !dbg !909 ; <i16> [#uses=2]
  call void (...)* @_ssdm_SpecKeepArrayLoad(i16 %in.load.7) nounwind
  %tmp.30 = zext i16 %in.load.7 to i32, !dbg !909 ; <i32> [#uses=1]
  %tmp.31 = sitofp i32 %tmp.30 to float, !dbg !909 ; <float> [#uses=1]
  %tmp.32 = fmul float %tmp.31, 0x3FE36A2B20000000, !dbg !909 ; <float> [#uses=1]
  %tmp.33 = fadd float %tmp.29, %tmp.32, !dbg !909 ; <float> [#uses=1]
  call void (...)* @_ssdm_SpecKeepArrayLoad(float 0x3FCF91E640000000) nounwind
  %in.addr.8 = getelementptr inbounds [1920 x i16]* %in, i64 %tmp.10, i64 %tmp.26, !dbg !909 ; <i16*> [#uses=1]
  %in.load.8 = load i16* %in.addr.8, align 2, !dbg !909 ; <i16> [#uses=2]
  call void (...)* @_ssdm_SpecKeepArrayLoad(i16 %in.load.8) nounwind
  %tmp.34 = zext i16 %in.load.8 to i32, !dbg !909 ; <i32> [#uses=1]
  %tmp.35 = sitofp i32 %tmp.34 to float, !dbg !909 ; <float> [#uses=1]
  %tmp.36 = fmul float %tmp.35, 0x3FCF91E640000000, !dbg !909 ; <float> [#uses=1]
  %tmp2 = fadd float %tmp.33, %tmp.36, !dbg !909  ; <float> [#uses=2]
  call void @llvm.dbg.value(metadata !{float %tmp2}, i64 0, metadata !910), !dbg !909
  call void (...)* @_ssdm_SpecKeepArrayLoad(float 0x3FCF91E640000000) nounwind
  %tmp.37 = fmul float %tmp0.2, 0x3FCF91E640000000, !dbg !911 ; <float> [#uses=1]
  call void (...)* @_ssdm_SpecKeepArrayLoad(float 0x3FE36A2B20000000) nounwind
  %tmp.38 = fmul float %tmp0.3, 0x3FE36A2B20000000, !dbg !911 ; <float> [#uses=1]
  %tmp.39 = fadd float %tmp.37, %tmp.38, !dbg !911 ; <float> [#uses=1]
  call void (...)* @_ssdm_SpecKeepArrayLoad(float 0x3FCF91E640000000) nounwind
  %tmp.40 = fmul float %tmp2, 0x3FCF91E640000000, !dbg !911 ; <float> [#uses=1]
  %tmp.41 = fadd float %tmp.39, %tmp.40, !dbg !911 ; <float> [#uses=1]
  %tmp.42 = fptoui float %tmp.41 to i16, !dbg !911 ; <i16> [#uses=1]
  %tmp.43 = sext i32 %tmp6 to i64, !dbg !911      ; <i64> [#uses=1]
  %out.addr = getelementptr inbounds [1920 x i16]* %out, i64 %tmp.5, i64 %tmp.43, !dbg !911 ; <i16*> [#uses=1]
  store i16 %tmp.42, i16* %out.addr, align 2, !dbg !911
  call void @llvm.dbg.value(metadata !{float %tmp0.3}, i64 0, metadata !905), !dbg !912
  call void @llvm.dbg.value(metadata !{float %tmp2}, i64 0, metadata !907), !dbg !913
  %rend = call i32 (...)* @_ssdm_op_SpecRegionEnd(i8* getelementptr inbounds ([36 x i8]* @.str7, i64 0, i64 0), i32 %rbegin) nounwind, !dbg !914 ; <i32> [#uses=0]
  br label %bb2, !dbg !908

bb2:                                              ; preds = %bb1, %bb
  %indvar = phi i32 [ 0, %bb ], [ %tmp6, %bb1 ]   ; <i32> [#uses=3]
  %tmp0.3 = phi float [ %tmp1, %bb ], [ %tmp2, %bb1 ] ; <float> [#uses=2]
  %tmp0.2 = phi float [ %tmp0, %bb ], [ %tmp0.3, %bb1 ] ; <float> [#uses=1]
  call void @llvm.dbg.value(metadata !{float %tmp0.3}, i64 0, metadata !907)
  call void @llvm.dbg.value(metadata !{float %tmp0.2}, i64 0, metadata !905)
  %tmp6 = add i32 %indvar, 1, !dbg !911           ; <i32> [#uses=2]
  %j = add i32 %indvar, 2, !dbg !908              ; <i32> [#uses=1]
  call void @llvm.dbg.value(metadata !{i32 %j}, i64 0, metadata !915), !dbg !908
  %exitcond5 = icmp eq i32 %indvar, 1918, !dbg !908 ; <i1> [#uses=1]
  br i1 %exitcond5, label %bb4.loopexit, label %bb1, !dbg !908

bb4.loopexit:                                     ; preds = %bb2
  br label %bb4

bb4:                                              ; preds = %bb4.loopexit, %entry
  %indvar1 = phi i32 [ 0, %entry ], [ %i, %bb4.loopexit ], !dbg !904 ; <i32> [#uses=4]
  %tmp = add i32 %indvar1, 2, !dbg !904           ; <i32> [#uses=1]
  %i = add i32 %indvar1, 1, !dbg !903             ; <i32> [#uses=2]
  call void @llvm.dbg.value(metadata !{i32 %i}, i64 0, metadata !917), !dbg !903
  %exitcond = icmp eq i32 %indvar1, 1079, !dbg !903 ; <i1> [#uses=1]
  br i1 %exitcond, label %return, label %bb, !dbg !903

return:                                           ; preds = %bb4
  ret void, !dbg !918
}

declare void @llvm.dbg.value(metadata, i64, metadata) nounwind readnone

declare void @_ssdm_SpecKeepArrayLoad(...)

declare void @_GLOBAL__I__Z19gaussian_fixedPointPA1920_tS0_() nounwind

declare void @_GLOBAL__D__Z19gaussian_fixedPointPA1920_tS0_() nounwind

declare i32 @_ssdm_op_SpecLoopBegin(...)

declare i32 @_ssdm_op_SpecRegionBegin(...)

declare i32 @_ssdm_op_SpecRegionEnd(...)

declare i32 @_ssdm_op_SpecRegionEnd.restore(...)

!llvm.dbg.gv = !{!0, !7, !11, !17, !855, !860, !864, !869, !874}

!0 = metadata !{i32 458804, i32 0, metadata !1, metadata !"k", metadata !"k", metadata !"", metadata !2, i32 3, metadata !3, i1 true, i1 true, null} ; [ DW_TAG_variable ]
!1 = metadata !{i32 458769, i32 0, i32 4, metadata !"gaussian_1line.pragma.2.cpp", metadata !"/users/deastir/mcaceres/Documents/VIVADO/TP_Vivado_HLS/TP_Vivado_HLS/gaussian/solution1/.autopilot/db", metadata !"4.2.1 (Based on Apple Inc. build 5658) (LLVM build 2.7)", i1 true, i1 false, metadata !"", i32 0} ; [ DW_TAG_compile_unit ]
!2 = metadata !{i32 458769, i32 0, i32 4, metadata !"gaussian_1line.cpp", metadata !"/users/deastir/mcaceres/Documents/VIVADO/TP_Vivado_HLS/TP_Vivado_HLS/src", metadata !"4.2.1 (Based on Apple Inc. build 5658) (LLVM build 2.7)", i1 false, i1 false, metadata !"", i32 0} ; [ DW_TAG_compile_unit ]
!3 = metadata !{i32 458753, metadata !1, metadata !"", metadata !1, i32 0, i64 96, i64 32, i64 0, i32 0, metadata !4, metadata !5, i32 0, null} ; [ DW_TAG_array_type ]
!4 = metadata !{i32 458788, metadata !1, metadata !"float", metadata !1, i32 0, i64 32, i64 32, i64 0, i32 0, i32 4} ; [ DW_TAG_base_type ]
!5 = metadata !{metadata !6}
!6 = metadata !{i32 458785, i64 0, i64 2}         ; [ DW_TAG_subrange_type ]
!7 = metadata !{i32 458804, i32 0, metadata !1, metadata !"tmp", metadata !"tmp", metadata !"", metadata !2, i32 5, metadata !8, i1 true, i1 true, [1920 x float]* @tmp} ; [ DW_TAG_variable ]
!8 = metadata !{i32 458753, metadata !1, metadata !"", metadata !1, i32 0, i64 61440, i64 32, i64 0, i32 0, metadata !4, metadata !9, i32 0, null} ; [ DW_TAG_array_type ]
!9 = metadata !{metadata !10}
!10 = metadata !{i32 458785, i64 0, i64 1919}     ; [ DW_TAG_subrange_type ]
!11 = metadata !{i32 458804, i32 0, metadata !12, metadata !"K", metadata !"K", metadata !"", metadata !13, i32 3, metadata !14, i1 true, i1 true, null} ; [ DW_TAG_variable ]
!12 = metadata !{i32 458769, i32 0, i32 4, metadata !"gaussian_3x3.pragma.2.cpp", metadata !"/users/deastir/mcaceres/Documents/VIVADO/TP_Vivado_HLS/TP_Vivado_HLS/gaussian/solution1/.autopilot/db", metadata !"4.2.1 (Based on Apple Inc. build 5658) (LLVM build 2.7)", i1 true, i1 false, metadata !"", i32 0} ; [ DW_TAG_compile_unit ]
!13 = metadata !{i32 458769, i32 0, i32 4, metadata !"gaussian_3x3.cpp", metadata !"/users/deastir/mcaceres/Documents/VIVADO/TP_Vivado_HLS/TP_Vivado_HLS/src", metadata !"4.2.1 (Based on Apple Inc. build 5658) (LLVM build 2.7)", i1 false, i1 false, metadata !"", i32 0} ; [ DW_TAG_compile_unit ]
!14 = metadata !{i32 458753, metadata !12, metadata !"", metadata !12, i32 0, i64 288, i64 32, i64 0, i32 0, metadata !15, metadata !16, i32 0, null} ; [ DW_TAG_array_type ]
!15 = metadata !{i32 458788, metadata !12, metadata !"float", metadata !12, i32 0, i64 32, i64 32, i64 0, i32 0, i32 4} ; [ DW_TAG_base_type ]
!16 = metadata !{metadata !6, metadata !6}
!17 = metadata !{i32 458804, i32 0, metadata !18, metadata !"__ioinit", metadata !"__ioinit", metadata !"_ZStL8__ioinit", metadata !21, i32 77, metadata !22, i1 true, i1 true, null} ; [ DW_TAG_variable ]
!18 = metadata !{i32 458809, metadata !19, metadata !"std", metadata !20, i32 0} ; [ DW_TAG_namespace ]
!19 = metadata !{i32 458769, i32 0, i32 4, metadata !"gaussian_fixedPoint.pragma.2.cpp", metadata !"/users/deastir/mcaceres/Documents/VIVADO/TP_Vivado_HLS/TP_Vivado_HLS/gaussian/solution1/.autopilot/db", metadata !"4.2.1 (Based on Apple Inc. build 5658) (LLVM build 2.7)", i1 true, i1 false, metadata !"", i32 0} ; [ DW_TAG_compile_unit ]
!20 = metadata !{i32 458769, i32 0, i32 4, metadata !"<built-in>", metadata !"/users/deastir/mcaceres/Documents/VIVADO/TP_Vivado_HLS/TP_Vivado_HLS/", metadata !"4.2.1 (Based on Apple Inc. build 5658) (LLVM build 2.7)", i1 false, i1 false, metadata !"", i32 0} ; [ DW_TAG_compile_unit ]
!21 = metadata !{i32 458769, i32 0, i32 4, metadata !"iostream", metadata !"/usr/local/.recherche-cairn/Vivado-2013.2/Vivado_HLS/2013.2/Linux_x86_64/tools/llvm_gcc/bin/../lib/gcc/x86_64-unknown-linux-gnu/4.2.1/../../../../include/c++/4.2.1", metadata !"4.2.1 (Based on Apple Inc. build 5658) (LLVM build 2.7)", i1 false, i1 false, metadata !"", i32 0} ; [ DW_TAG_compile_unit ]
!22 = metadata !{i32 458771, metadata !23, metadata !"Init", metadata !24, i32 531, i64 8, i64 8, i64 0, i32 0, null, metadata !847, i32 0, null} ; [ DW_TAG_structure_type ]
!23 = metadata !{i32 458771, metadata !18, metadata !"ios_base", metadata !24, i32 202, i64 1728, i64 64, i64 0, i32 0, null, metadata !25, i32 0, metadata !23} ; [ DW_TAG_structure_type ]
!24 = metadata !{i32 458769, i32 0, i32 4, metadata !"ios_base.h", metadata !"/usr/local/.recherche-cairn/Vivado-2013.2/Vivado_HLS/2013.2/Linux_x86_64/tools/llvm_gcc/bin/../lib/gcc/x86_64-unknown-linux-gnu/4.2.1/../../../../include/c++/4.2.1/bits", metadata !"4.2.1 (Based on Apple Inc. build 5658) (LLVM build 2.7)", i1 false, i1 false, metadata !"", i32 0} ; [ DW_TAG_compile_unit ]
!25 = metadata !{metadata !26, metadata !32, metadata !36, metadata !37, metadata !59, metadata !67, metadata !68, metadata !97, metadata !107, metadata !111, metadata !112, metadata !114, metadata !777, metadata !781, metadata !784, metadata !787, metadata !791, metadata !792, metadata !797, metadata !800, metadata !801, metadata !804, metadata !807, metadata !810, metadata !813, metadata !814, metadata !815, metadata !818, metadata !821, metadata !824, metadata !827, metadata !828, metadata !832, metadata !836, metadata !839, metadata !840, metadata !844}
!26 = metadata !{i32 458765, metadata !23, metadata !"_vptr.ios_base", metadata !24, i32 202, i64 64, i64 64, i64 0, i32 0, metadata !27} ; [ DW_TAG_member ]
!27 = metadata !{i32 458767, metadata !19, metadata !"", metadata !19, i32 0, i64 64, i64 64, i64 0, i32 0, metadata !28} ; [ DW_TAG_pointer_type ]
!28 = metadata !{i32 458767, metadata !19, metadata !"__vtbl_ptr_type", metadata !20, i32 0, i64 0, i64 0, i64 0, i32 0, metadata !29} ; [ DW_TAG_pointer_type ]
!29 = metadata !{i32 458773, metadata !19, metadata !"", metadata !19, i32 0, i64 0, i64 0, i64 0, i32 0, null, metadata !30, i32 0, null} ; [ DW_TAG_subroutine_type ]
!30 = metadata !{metadata !31}
!31 = metadata !{i32 458788, metadata !19, metadata !"int", metadata !19, i32 0, i64 32, i64 32, i64 0, i32 0, i32 5} ; [ DW_TAG_base_type ]
!32 = metadata !{i32 458765, metadata !23, metadata !"_M_precision", metadata !24, i32 457, i64 64, i64 64, i64 64, i32 2, metadata !33} ; [ DW_TAG_member ]
!33 = metadata !{i32 458774, metadata !18, metadata !"streamsize", metadata !34, i32 72, i64 0, i64 0, i64 0, i32 0, metadata !35} ; [ DW_TAG_typedef ]
!34 = metadata !{i32 458769, i32 0, i32 4, metadata !"postypes.h", metadata !"/usr/local/.recherche-cairn/Vivado-2013.2/Vivado_HLS/2013.2/Linux_x86_64/tools/llvm_gcc/bin/../lib/gcc/x86_64-unknown-linux-gnu/4.2.1/../../../../include/c++/4.2.1/bits", metadata !"4.2.1 (Based on Apple Inc. build 5658) (LLVM build 2.7)", i1 false, i1 false, metadata !"", i32 0} ; [ DW_TAG_compile_unit ]
!35 = metadata !{i32 458788, metadata !19, metadata !"long int", metadata !19, i32 0, i64 64, i64 64, i64 0, i32 0, i32 5} ; [ DW_TAG_base_type ]
!36 = metadata !{i32 458765, metadata !23, metadata !"_M_width", metadata !24, i32 458, i64 64, i64 64, i64 128, i32 2, metadata !33} ; [ DW_TAG_member ]
!37 = metadata !{i32 458765, metadata !23, metadata !"_M_flags", metadata !24, i32 459, i64 32, i64 32, i64 192, i32 2, metadata !38} ; [ DW_TAG_member ]
!38 = metadata !{i32 458756, metadata !18, metadata !"_Ios_Fmtflags", metadata !24, i32 55, i64 32, i64 32, i64 0, i32 0, null, metadata !39, i32 0, null} ; [ DW_TAG_enumeration_type ]
!39 = metadata !{metadata !40, metadata !41, metadata !42, metadata !43, metadata !44, metadata !45, metadata !46, metadata !47, metadata !48, metadata !49, metadata !50, metadata !51, metadata !52, metadata !53, metadata !54, metadata !55, metadata !56, metadata !57, metadata !58}
!40 = metadata !{i32 458792, metadata !"_S_boolalpha", i64 1} ; [ DW_TAG_enumerator ]
!41 = metadata !{i32 458792, metadata !"_S_dec", i64 2} ; [ DW_TAG_enumerator ]
!42 = metadata !{i32 458792, metadata !"_S_fixed", i64 4} ; [ DW_TAG_enumerator ]
!43 = metadata !{i32 458792, metadata !"_S_hex", i64 8} ; [ DW_TAG_enumerator ]
!44 = metadata !{i32 458792, metadata !"_S_internal", i64 16} ; [ DW_TAG_enumerator ]
!45 = metadata !{i32 458792, metadata !"_S_left", i64 32} ; [ DW_TAG_enumerator ]
!46 = metadata !{i32 458792, metadata !"_S_oct", i64 64} ; [ DW_TAG_enumerator ]
!47 = metadata !{i32 458792, metadata !"_S_right", i64 128} ; [ DW_TAG_enumerator ]
!48 = metadata !{i32 458792, metadata !"_S_scientific", i64 256} ; [ DW_TAG_enumerator ]
!49 = metadata !{i32 458792, metadata !"_S_showbase", i64 512} ; [ DW_TAG_enumerator ]
!50 = metadata !{i32 458792, metadata !"_S_showpoint", i64 1024} ; [ DW_TAG_enumerator ]
!51 = metadata !{i32 458792, metadata !"_S_showpos", i64 2048} ; [ DW_TAG_enumerator ]
!52 = metadata !{i32 458792, metadata !"_S_skipws", i64 4096} ; [ DW_TAG_enumerator ]
!53 = metadata !{i32 458792, metadata !"_S_unitbuf", i64 8192} ; [ DW_TAG_enumerator ]
!54 = metadata !{i32 458792, metadata !"_S_uppercase", i64 16384} ; [ DW_TAG_enumerator ]
!55 = metadata !{i32 458792, metadata !"_S_adjustfield", i64 176} ; [ DW_TAG_enumerator ]
!56 = metadata !{i32 458792, metadata !"_S_basefield", i64 74} ; [ DW_TAG_enumerator ]
!57 = metadata !{i32 458792, metadata !"_S_floatfield", i64 260} ; [ DW_TAG_enumerator ]
!58 = metadata !{i32 458792, metadata !"_S_ios_fmtflags_end", i64 65536} ; [ DW_TAG_enumerator ]
!59 = metadata !{i32 458765, metadata !23, metadata !"_M_exception", metadata !24, i32 460, i64 32, i64 32, i64 224, i32 2, metadata !60} ; [ DW_TAG_member ]
!60 = metadata !{i32 458756, metadata !18, metadata !"_Ios_Iostate", metadata !24, i32 147, i64 32, i64 32, i64 0, i32 0, null, metadata !61, i32 0, null} ; [ DW_TAG_enumeration_type ]
!61 = metadata !{metadata !62, metadata !63, metadata !64, metadata !65, metadata !66}
!62 = metadata !{i32 458792, metadata !"_S_goodbit", i64 0} ; [ DW_TAG_enumerator ]
!63 = metadata !{i32 458792, metadata !"_S_badbit", i64 1} ; [ DW_TAG_enumerator ]
!64 = metadata !{i32 458792, metadata !"_S_eofbit", i64 2} ; [ DW_TAG_enumerator ]
!65 = metadata !{i32 458792, metadata !"_S_failbit", i64 4} ; [ DW_TAG_enumerator ]
!66 = metadata !{i32 458792, metadata !"_S_ios_iostate_end", i64 65536} ; [ DW_TAG_enumerator ]
!67 = metadata !{i32 458765, metadata !23, metadata !"_M_streambuf_state", metadata !24, i32 461, i64 32, i64 32, i64 256, i32 2, metadata !60} ; [ DW_TAG_member ]
!68 = metadata !{i32 458765, metadata !23, metadata !"_M_callbacks", metadata !24, i32 487, i64 64, i64 64, i64 320, i32 2, metadata !69} ; [ DW_TAG_member ]
!69 = metadata !{i32 458767, metadata !19, metadata !"", metadata !19, i32 0, i64 64, i64 64, i64 0, i32 0, metadata !70} ; [ DW_TAG_pointer_type ]
!70 = metadata !{i32 458771, metadata !23, metadata !"_Callback_list", metadata !24, i32 467, i64 192, i64 64, i64 0, i32 0, null, metadata !71, i32 0, null} ; [ DW_TAG_structure_type ]
!71 = metadata !{metadata !72, metadata !73, metadata !83, metadata !84, metadata !87, metadata !91, metadata !94}
!72 = metadata !{i32 458765, metadata !70, metadata !"_M_next", metadata !24, i32 469, i64 64, i64 64, i64 0, i32 0, metadata !69} ; [ DW_TAG_member ]
!73 = metadata !{i32 458765, metadata !70, metadata !"_M_fn", metadata !24, i32 470, i64 64, i64 64, i64 64, i32 0, metadata !74} ; [ DW_TAG_member ]
!74 = metadata !{i32 458767, metadata !19, metadata !"", metadata !19, i32 0, i64 64, i64 64, i64 0, i32 0, metadata !75} ; [ DW_TAG_pointer_type ]
!75 = metadata !{i32 458773, metadata !19, metadata !"", metadata !19, i32 0, i64 0, i64 0, i64 0, i32 0, null, metadata !76, i32 0, null} ; [ DW_TAG_subroutine_type ]
!76 = metadata !{null, metadata !77, metadata !82, metadata !31}
!77 = metadata !{i32 458756, metadata !23, metadata !"event", metadata !24, i32 418, i64 32, i64 32, i64 0, i32 0, null, metadata !78, i32 0, null} ; [ DW_TAG_enumeration_type ]
!78 = metadata !{metadata !79, metadata !80, metadata !81}
!79 = metadata !{i32 458792, metadata !"erase_event", i64 0} ; [ DW_TAG_enumerator ]
!80 = metadata !{i32 458792, metadata !"imbue_event", i64 1} ; [ DW_TAG_enumerator ]
!81 = metadata !{i32 458792, metadata !"copyfmt_event", i64 2} ; [ DW_TAG_enumerator ]
!82 = metadata !{i32 458768, metadata !19, metadata !"stdios_base", metadata !19, i32 0, i64 64, i64 64, i64 0, i32 0, metadata !23} ; [ DW_TAG_reference_type ]
!83 = metadata !{i32 458765, metadata !70, metadata !"_M_index", metadata !24, i32 471, i64 32, i64 32, i64 128, i32 0, metadata !31} ; [ DW_TAG_member ]
!84 = metadata !{i32 458765, metadata !70, metadata !"_M_refcount", metadata !24, i32 472, i64 32, i64 32, i64 160, i32 0, metadata !85} ; [ DW_TAG_member ]
!85 = metadata !{i32 458774, metadata !19, metadata !"_Atomic_word", metadata !86, i32 949, i64 0, i64 0, i64 0, i32 0, metadata !31} ; [ DW_TAG_typedef ]
!86 = metadata !{i32 458769, i32 0, i32 4, metadata !"stdlib.h", metadata !"/usr/include", metadata !"4.2.1 (Based on Apple Inc. build 5658) (LLVM build 2.7)", i1 false, i1 false, metadata !"", i32 0} ; [ DW_TAG_compile_unit ]
!87 = metadata !{i32 458798, i32 0, metadata !70, metadata !"_Callback_list", metadata !"_Callback_list", metadata !"", metadata !24, i32 475, metadata !88, i1 false, i1 false, i32 0, i32 0, null, i1 false} ; [ DW_TAG_subprogram ]
!88 = metadata !{i32 458773, metadata !19, metadata !"", metadata !19, i32 0, i64 0, i64 0, i64 0, i32 0, null, metadata !89, i32 0, null} ; [ DW_TAG_subroutine_type ]
!89 = metadata !{null, metadata !90, metadata !74, metadata !31, metadata !69}
!90 = metadata !{i32 458767, metadata !19, metadata !"", metadata !19, i32 0, i64 64, i64 64, i64 0, i32 64, metadata !70} ; [ DW_TAG_pointer_type ]
!91 = metadata !{i32 458798, i32 0, metadata !70, metadata !"_M_add_reference", metadata !"_M_add_reference", metadata !"_ZNSt8ios_base14_Callback_list16_M_add_referenceEv", metadata !24, i32 479, metadata !92, i1 false, i1 false, i32 0, i32 0, null, i1 false} ; [ DW_TAG_subprogram ]
!92 = metadata !{i32 458773, metadata !19, metadata !"", metadata !19, i32 0, i64 0, i64 0, i64 0, i32 0, null, metadata !93, i32 0, null} ; [ DW_TAG_subroutine_type ]
!93 = metadata !{null, metadata !90}
!94 = metadata !{i32 458798, i32 0, metadata !70, metadata !"_M_remove_reference", metadata !"_M_remove_reference", metadata !"_ZNSt8ios_base14_Callback_list19_M_remove_referenceEv", metadata !24, i32 483, metadata !95, i1 false, i1 false, i32 0, i32 0, null, i1 false} ; [ DW_TAG_subprogram ]
!95 = metadata !{i32 458773, metadata !19, metadata !"", metadata !19, i32 0, i64 0, i64 0, i64 0, i32 0, null, metadata !96, i32 0, null} ; [ DW_TAG_subroutine_type ]
!96 = metadata !{metadata !31, metadata !90}
!97 = metadata !{i32 458765, metadata !23, metadata !"_M_word_zero", metadata !24, i32 504, i64 128, i64 64, i64 384, i32 2, metadata !98} ; [ DW_TAG_member ]
!98 = metadata !{i32 458771, metadata !23, metadata !"_Words", metadata !24, i32 497, i64 128, i64 64, i64 0, i32 0, null, metadata !99, i32 0, null} ; [ DW_TAG_structure_type ]
!99 = metadata !{metadata !100, metadata !102, metadata !103}
!100 = metadata !{i32 458765, metadata !98, metadata !"_M_pword", metadata !24, i32 498, i64 64, i64 64, i64 0, i32 0, metadata !101} ; [ DW_TAG_member ]
!101 = metadata !{i32 458767, metadata !19, metadata !"", metadata !19, i32 0, i64 64, i64 64, i64 0, i32 0, null} ; [ DW_TAG_pointer_type ]
!102 = metadata !{i32 458765, metadata !98, metadata !"_M_iword", metadata !24, i32 499, i64 64, i64 64, i64 64, i32 0, metadata !35} ; [ DW_TAG_member ]
!103 = metadata !{i32 458798, i32 0, metadata !98, metadata !"_Words", metadata !"_Words", metadata !"", metadata !24, i32 500, metadata !104, i1 false, i1 false, i32 0, i32 0, null, i1 false} ; [ DW_TAG_subprogram ]
!104 = metadata !{i32 458773, metadata !19, metadata !"", metadata !19, i32 0, i64 0, i64 0, i64 0, i32 0, null, metadata !105, i32 0, null} ; [ DW_TAG_subroutine_type ]
!105 = metadata !{null, metadata !106}
!106 = metadata !{i32 458767, metadata !19, metadata !"", metadata !19, i32 0, i64 64, i64 64, i64 0, i32 64, metadata !98} ; [ DW_TAG_pointer_type ]
!107 = metadata !{i32 458765, metadata !23, metadata !"_M_local_word", metadata !24, i32 509, i64 1024, i64 64, i64 512, i32 2, metadata !108} ; [ DW_TAG_member ]
!108 = metadata !{i32 458753, metadata !19, metadata !"", metadata !19, i32 0, i64 1024, i64 64, i64 0, i32 0, metadata !98, metadata !109, i32 0, null} ; [ DW_TAG_array_type ]
!109 = metadata !{metadata !110}
!110 = metadata !{i32 458785, i64 0, i64 7}       ; [ DW_TAG_subrange_type ]
!111 = metadata !{i32 458765, metadata !23, metadata !"_M_word_size", metadata !24, i32 512, i64 32, i64 32, i64 1536, i32 2, metadata !31} ; [ DW_TAG_member ]
!112 = metadata !{i32 458765, metadata !23, metadata !"_M_word", metadata !24, i32 513, i64 64, i64 64, i64 1600, i32 2, metadata !113} ; [ DW_TAG_member ]
!113 = metadata !{i32 458767, metadata !19, metadata !"", metadata !19, i32 0, i64 64, i64 64, i64 0, i32 0, metadata !98} ; [ DW_TAG_pointer_type ]
!114 = metadata !{i32 458765, metadata !23, metadata !"_M_ios_locale", metadata !24, i32 519, i64 64, i64 64, i64 1664, i32 2, metadata !115} ; [ DW_TAG_member ]
!115 = metadata !{i32 458771, metadata !18, metadata !"locale", metadata !116, i32 67, i64 64, i64 64, i64 0, i32 0, null, metadata !117, i32 0, null} ; [ DW_TAG_structure_type ]
!116 = metadata !{i32 458769, i32 0, i32 4, metadata !"locale_classes.h", metadata !"/usr/local/.recherche-cairn/Vivado-2013.2/Vivado_HLS/2013.2/Linux_x86_64/tools/llvm_gcc/bin/../lib/gcc/x86_64-unknown-linux-gnu/4.2.1/../../../../include/c++/4.2.1/bits", metadata !"4.2.1 (Based on Apple Inc. build 5658) (LLVM build 2.7)", i1 false, i1 false, metadata !"", i32 0} ; [ DW_TAG_compile_unit ]
!117 = metadata !{metadata !118, metadata !270, metadata !274, metadata !279, metadata !282, metadata !285, metadata !288, metadata !291, metadata !294, metadata !758, metadata !761, metadata !762, metadata !765, metadata !768, metadata !771, metadata !772, metadata !773, metadata !776}
!118 = metadata !{i32 458765, metadata !115, metadata !"_M_impl", metadata !116, i32 285, i64 64, i64 64, i64 0, i32 1, metadata !119} ; [ DW_TAG_member ]
!119 = metadata !{i32 458767, metadata !19, metadata !"", metadata !19, i32 0, i64 64, i64 64, i64 0, i32 0, metadata !120} ; [ DW_TAG_pointer_type ]
!120 = metadata !{i32 458771, metadata !115, metadata !"_Impl", metadata !116, i32 473, i64 320, i64 64, i64 0, i32 0, null, metadata !121, i32 0, null} ; [ DW_TAG_structure_type ]
!121 = metadata !{metadata !122, metadata !123, metadata !202, metadata !203, metadata !204, metadata !207, metadata !211, metadata !212, metadata !217, metadata !220, metadata !223, metadata !226, metadata !229, metadata !230, metadata !234, metadata !238, metadata !261, metadata !264, metadata !267}
!122 = metadata !{i32 458765, metadata !120, metadata !"_M_refcount", metadata !116, i32 492, i64 32, i64 32, i64 0, i32 1, metadata !85} ; [ DW_TAG_member ]
!123 = metadata !{i32 458765, metadata !120, metadata !"_M_facets", metadata !116, i32 493, i64 64, i64 64, i64 64, i32 1, metadata !124} ; [ DW_TAG_member ]
!124 = metadata !{i32 458767, metadata !19, metadata !"", metadata !19, i32 0, i64 64, i64 64, i64 0, i32 0, metadata !125} ; [ DW_TAG_pointer_type ]
!125 = metadata !{i32 458767, metadata !19, metadata !"", metadata !19, i32 0, i64 64, i64 64, i64 0, i32 0, metadata !126} ; [ DW_TAG_pointer_type ]
!126 = metadata !{i32 458790, metadata !115, metadata !"", metadata !19, i32 0, i64 128, i64 64, i64 0, i32 0, metadata !127} ; [ DW_TAG_const_type ]
!127 = metadata !{i32 458771, metadata !115, metadata !"facet", metadata !116, i32 343, i64 128, i64 64, i64 0, i32 0, null, metadata !128, i32 0, metadata !127} ; [ DW_TAG_structure_type ]
!128 = metadata !{metadata !129, metadata !130, metadata !131, metadata !134, metadata !141, metadata !144, metadata !177, metadata !180, metadata !183, metadata !186, metadata !189, metadata !193, metadata !194, metadata !198}
!129 = metadata !{i32 458765, metadata !127, metadata !"_vptr.facet", metadata !116, i32 343, i64 64, i64 64, i64 0, i32 0, metadata !27} ; [ DW_TAG_member ]
!130 = metadata !{i32 458765, metadata !127, metadata !"_M_refcount", metadata !116, i32 348, i64 32, i64 32, i64 64, i32 1, metadata !85} ; [ DW_TAG_member ]
!131 = metadata !{i32 458798, i32 0, metadata !127, metadata !"_S_initialize_once", metadata !"_S_initialize_once", metadata !"_ZNSt6locale5facet18_S_initialize_onceEv", metadata !116, i32 361, metadata !132, i1 false, i1 false, i32 0, i32 0, null, i1 false} ; [ DW_TAG_subprogram ]
!132 = metadata !{i32 458773, metadata !19, metadata !"", metadata !19, i32 0, i64 0, i64 0, i64 0, i32 0, null, metadata !133, i32 0, null} ; [ DW_TAG_subroutine_type ]
!133 = metadata !{null}
!134 = metadata !{i32 458798, i32 0, metadata !127, metadata !"facet", metadata !"facet", metadata !"", metadata !116, i32 374, metadata !135, i1 false, i1 false, i32 0, i32 0, null, i1 false} ; [ DW_TAG_subprogram ]
!135 = metadata !{i32 458773, metadata !19, metadata !"", metadata !19, i32 0, i64 0, i64 0, i64 0, i32 0, null, metadata !136, i32 0, null} ; [ DW_TAG_subroutine_type ]
!136 = metadata !{null, metadata !137, metadata !138}
!137 = metadata !{i32 458767, metadata !19, metadata !"", metadata !19, i32 0, i64 64, i64 64, i64 0, i32 64, metadata !127} ; [ DW_TAG_pointer_type ]
!138 = metadata !{i32 458774, metadata !19, metadata !"size_t", metadata !139, i32 152, i64 0, i64 0, i64 0, i32 0, metadata !140} ; [ DW_TAG_typedef ]
!139 = metadata !{i32 458769, i32 0, i32 4, metadata !"stddef.h", metadata !"/usr/local/.recherche-cairn/Vivado-2013.2/Vivado_HLS/2013.2/Linux_x86_64/tools/llvm_gcc/bin/../lib/gcc/x86_64-unknown-linux-gnu/4.2.1/include", metadata !"4.2.1 (Based on Apple Inc. build 5658) (LLVM build 2.7)", i1 false, i1 false, metadata !"", i32 0} ; [ DW_TAG_compile_unit ]
!140 = metadata !{i32 458788, metadata !19, metadata !"long unsigned int", metadata !19, i32 0, i64 64, i64 64, i64 0, i32 0, i32 7} ; [ DW_TAG_base_type ]
!141 = metadata !{i32 458798, i32 0, metadata !127, metadata !"~facet", metadata !"~facet", metadata !"", metadata !116, i32 379, metadata !142, i1 false, i1 false, i32 1, i32 0, metadata !127, i1 false} ; [ DW_TAG_subprogram ]
!142 = metadata !{i32 458773, metadata !19, metadata !"", metadata !19, i32 0, i64 0, i64 0, i64 0, i32 0, null, metadata !143, i32 0, null} ; [ DW_TAG_subroutine_type ]
!143 = metadata !{null, metadata !137, metadata !31}
!144 = metadata !{i32 458798, i32 0, metadata !127, metadata !"_S_create_c_locale", metadata !"_S_create_c_locale", metadata !"_ZNSt6locale5facet18_S_create_c_localeERP15__locale_structPKcS2_", metadata !116, i32 383, metadata !145, i1 false, i1 false, i32 0, i32 0, null, i1 false} ; [ DW_TAG_subprogram ]
!145 = metadata !{i32 458773, metadata !19, metadata !"", metadata !19, i32 0, i64 0, i64 0, i64 0, i32 0, null, metadata !146, i32 0, null} ; [ DW_TAG_subroutine_type ]
!146 = metadata !{null, metadata !147, metadata !170, metadata !148}
!147 = metadata !{i32 458768, metadata !19, metadata !"__c_locale", metadata !19, i32 0, i64 64, i64 64, i64 0, i32 0, metadata !148} ; [ DW_TAG_reference_type ]
!148 = metadata !{i32 458774, metadata !18, metadata !"__c_locale", metadata !149, i32 125, i64 0, i64 0, i64 0, i32 0, metadata !150} ; [ DW_TAG_typedef ]
!149 = metadata !{i32 458769, i32 0, i32 4, metadata !"cstring", metadata !"/usr/local/.recherche-cairn/Vivado-2013.2/Vivado_HLS/2013.2/Linux_x86_64/tools/llvm_gcc/bin/../lib/gcc/x86_64-unknown-linux-gnu/4.2.1/../../../../include/c++/4.2.1", metadata !"4.2.1 (Based on Apple Inc. build 5658) (LLVM build 2.7)", i1 false, i1 false, metadata !"", i32 0} ; [ DW_TAG_compile_unit ]
!150 = metadata !{i32 458767, metadata !19, metadata !"", metadata !19, i32 0, i64 64, i64 64, i64 0, i32 0, metadata !151} ; [ DW_TAG_pointer_type ]
!151 = metadata !{i32 458771, metadata !19, metadata !"__locale_struct", metadata !152, i32 29, i64 1856, i64 64, i64 0, i32 0, null, metadata !153, i32 0, null} ; [ DW_TAG_structure_type ]
!152 = metadata !{i32 458769, i32 0, i32 4, metadata !"xlocale.h", metadata !"/usr/include", metadata !"4.2.1 (Based on Apple Inc. build 5658) (LLVM build 2.7)", i1 false, i1 false, metadata !"", i32 0} ; [ DW_TAG_compile_unit ]
!153 = metadata !{metadata !154, metadata !160, metadata !164, metadata !167, metadata !168, metadata !173}
!154 = metadata !{i32 458765, metadata !151, metadata !"__locales", metadata !152, i32 31, i64 832, i64 64, i64 0, i32 0, metadata !155} ; [ DW_TAG_member ]
!155 = metadata !{i32 458753, metadata !19, metadata !"", metadata !19, i32 0, i64 832, i64 64, i64 0, i32 0, metadata !156, metadata !158, i32 0, null} ; [ DW_TAG_array_type ]
!156 = metadata !{i32 458767, metadata !19, metadata !"", metadata !19, i32 0, i64 64, i64 64, i64 0, i32 0, metadata !157} ; [ DW_TAG_pointer_type ]
!157 = metadata !{i32 458771, metadata !19, metadata !"__locale_data", metadata !152, i32 31, i64 0, i64 0, i64 0, i32 4, null, null, i32 0, null} ; [ DW_TAG_structure_type ]
!158 = metadata !{metadata !159}
!159 = metadata !{i32 458785, i64 0, i64 12}      ; [ DW_TAG_subrange_type ]
!160 = metadata !{i32 458765, metadata !151, metadata !"__ctype_b", metadata !152, i32 34, i64 64, i64 64, i64 832, i32 0, metadata !161} ; [ DW_TAG_member ]
!161 = metadata !{i32 458767, metadata !19, metadata !"", metadata !19, i32 0, i64 64, i64 64, i64 0, i32 0, metadata !162} ; [ DW_TAG_pointer_type ]
!162 = metadata !{i32 458790, metadata !19, metadata !"", metadata !19, i32 0, i64 16, i64 16, i64 0, i32 0, metadata !163} ; [ DW_TAG_const_type ]
!163 = metadata !{i32 458788, metadata !19, metadata !"short unsigned int", metadata !19, i32 0, i64 16, i64 16, i64 0, i32 0, i32 7} ; [ DW_TAG_base_type ]
!164 = metadata !{i32 458765, metadata !151, metadata !"__ctype_tolower", metadata !152, i32 35, i64 64, i64 64, i64 896, i32 0, metadata !165} ; [ DW_TAG_member ]
!165 = metadata !{i32 458767, metadata !19, metadata !"", metadata !19, i32 0, i64 64, i64 64, i64 0, i32 0, metadata !166} ; [ DW_TAG_pointer_type ]
!166 = metadata !{i32 458790, metadata !19, metadata !"", metadata !19, i32 0, i64 32, i64 32, i64 0, i32 0, metadata !31} ; [ DW_TAG_const_type ]
!167 = metadata !{i32 458765, metadata !151, metadata !"__ctype_toupper", metadata !152, i32 36, i64 64, i64 64, i64 960, i32 0, metadata !165} ; [ DW_TAG_member ]
!168 = metadata !{i32 458765, metadata !151, metadata !"__names", metadata !152, i32 39, i64 832, i64 64, i64 1024, i32 0, metadata !169} ; [ DW_TAG_member ]
!169 = metadata !{i32 458753, metadata !19, metadata !"", metadata !19, i32 0, i64 832, i64 64, i64 0, i32 0, metadata !170, metadata !158, i32 0, null} ; [ DW_TAG_array_type ]
!170 = metadata !{i32 458767, metadata !19, metadata !"", metadata !19, i32 0, i64 64, i64 64, i64 0, i32 0, metadata !171} ; [ DW_TAG_pointer_type ]
!171 = metadata !{i32 458790, metadata !19, metadata !"", metadata !19, i32 0, i64 8, i64 8, i64 0, i32 0, metadata !172} ; [ DW_TAG_const_type ]
!172 = metadata !{i32 458788, metadata !19, metadata !"char", metadata !19, i32 0, i64 8, i64 8, i64 0, i32 0, i32 6} ; [ DW_TAG_base_type ]
!173 = metadata !{i32 458798, i32 0, metadata !151, metadata !"__locale_struct", metadata !"__locale_struct", metadata !"", metadata !152, i32 42, metadata !174, i1 false, i1 false, i32 0, i32 0, null, i1 false} ; [ DW_TAG_subprogram ]
!174 = metadata !{i32 458773, metadata !19, metadata !"", metadata !19, i32 0, i64 0, i64 0, i64 0, i32 0, null, metadata !175, i32 0, null} ; [ DW_TAG_subroutine_type ]
!175 = metadata !{null, metadata !176}
!176 = metadata !{i32 458767, metadata !19, metadata !"", metadata !19, i32 0, i64 64, i64 64, i64 0, i32 64, metadata !151} ; [ DW_TAG_pointer_type ]
!177 = metadata !{i32 458798, i32 0, metadata !127, metadata !"_S_clone_c_locale", metadata !"_S_clone_c_locale", metadata !"_ZNSt6locale5facet17_S_clone_c_localeERP15__locale_struct", metadata !116, i32 386, metadata !178, i1 false, i1 false, i32 0, i32 0, null, i1 false} ; [ DW_TAG_subprogram ]
!178 = metadata !{i32 458773, metadata !19, metadata !"", metadata !19, i32 0, i64 0, i64 0, i64 0, i32 0, null, metadata !179, i32 0, null} ; [ DW_TAG_subroutine_type ]
!179 = metadata !{metadata !148, metadata !147}
!180 = metadata !{i32 458798, i32 0, metadata !127, metadata !"_S_destroy_c_locale", metadata !"_S_destroy_c_locale", metadata !"_ZNSt6locale5facet19_S_destroy_c_localeERP15__locale_struct", metadata !116, i32 389, metadata !181, i1 false, i1 false, i32 0, i32 0, null, i1 false} ; [ DW_TAG_subprogram ]
!181 = metadata !{i32 458773, metadata !19, metadata !"", metadata !19, i32 0, i64 0, i64 0, i64 0, i32 0, null, metadata !182, i32 0, null} ; [ DW_TAG_subroutine_type ]
!182 = metadata !{null, metadata !147}
!183 = metadata !{i32 458798, i32 0, metadata !127, metadata !"_S_get_c_locale", metadata !"_S_get_c_locale", metadata !"_ZNSt6locale5facet15_S_get_c_localeEv", metadata !116, i32 394, metadata !184, i1 false, i1 false, i32 0, i32 0, null, i1 false} ; [ DW_TAG_subprogram ]
!184 = metadata !{i32 458773, metadata !19, metadata !"", metadata !19, i32 0, i64 0, i64 0, i64 0, i32 0, null, metadata !185, i32 0, null} ; [ DW_TAG_subroutine_type ]
!185 = metadata !{metadata !148}
!186 = metadata !{i32 458798, i32 0, metadata !127, metadata !"_S_get_c_name", metadata !"_S_get_c_name", metadata !"_ZNSt6locale5facet13_S_get_c_nameEv", metadata !116, i32 397, metadata !187, i1 false, i1 false, i32 0, i32 0, null, i1 false} ; [ DW_TAG_subprogram ]
!187 = metadata !{i32 458773, metadata !19, metadata !"", metadata !19, i32 0, i64 0, i64 0, i64 0, i32 0, null, metadata !188, i32 0, null} ; [ DW_TAG_subroutine_type ]
!188 = metadata !{metadata !170}
!189 = metadata !{i32 458798, i32 0, metadata !127, metadata !"_M_add_reference", metadata !"_M_add_reference", metadata !"_ZNKSt6locale5facet16_M_add_referenceEv", metadata !116, i32 401, metadata !190, i1 false, i1 false, i32 0, i32 0, null, i1 false} ; [ DW_TAG_subprogram ]
!190 = metadata !{i32 458773, metadata !19, metadata !"", metadata !19, i32 0, i64 0, i64 0, i64 0, i32 0, null, metadata !191, i32 0, null} ; [ DW_TAG_subroutine_type ]
!191 = metadata !{null, metadata !192}
!192 = metadata !{i32 458767, metadata !19, metadata !"", metadata !19, i32 0, i64 64, i64 64, i64 0, i32 64, metadata !126} ; [ DW_TAG_pointer_type ]
!193 = metadata !{i32 458798, i32 0, metadata !127, metadata !"_M_remove_reference", metadata !"_M_remove_reference", metadata !"_ZNKSt6locale5facet19_M_remove_referenceEv", metadata !116, i32 405, metadata !190, i1 false, i1 false, i32 0, i32 0, null, i1 false} ; [ DW_TAG_subprogram ]
!194 = metadata !{i32 458798, i32 0, metadata !127, metadata !"facet", metadata !"facet", metadata !"", metadata !116, i32 416, metadata !195, i1 false, i1 false, i32 0, i32 0, null, i1 false} ; [ DW_TAG_subprogram ]
!195 = metadata !{i32 458773, metadata !19, metadata !"", metadata !19, i32 0, i64 0, i64 0, i64 0, i32 0, null, metadata !196, i32 0, null} ; [ DW_TAG_subroutine_type ]
!196 = metadata !{null, metadata !137, metadata !197}
!197 = metadata !{i32 458768, metadata !19, metadata !"", metadata !19, i32 0, i64 64, i64 64, i64 0, i32 0, metadata !126} ; [ DW_TAG_reference_type ]
!198 = metadata !{i32 458798, i32 0, metadata !127, metadata !"operator=", metadata !"operator=", metadata !"_ZNSt6locale5facetaSERKS0_", metadata !116, i32 419, metadata !199, i1 false, i1 false, i32 0, i32 0, null, i1 false} ; [ DW_TAG_subprogram ]
!199 = metadata !{i32 458773, metadata !19, metadata !"", metadata !19, i32 0, i64 0, i64 0, i64 0, i32 0, null, metadata !200, i32 0, null} ; [ DW_TAG_subroutine_type ]
!200 = metadata !{metadata !201, metadata !137, metadata !197}
!201 = metadata !{i32 458768, metadata !19, metadata !"localefacet", metadata !19, i32 0, i64 64, i64 64, i64 0, i32 0, metadata !127} ; [ DW_TAG_reference_type ]
!202 = metadata !{i32 458765, metadata !120, metadata !"_M_facets_size", metadata !116, i32 494, i64 64, i64 64, i64 128, i32 1, metadata !138} ; [ DW_TAG_member ]
!203 = metadata !{i32 458765, metadata !120, metadata !"_M_caches", metadata !116, i32 495, i64 64, i64 64, i64 192, i32 1, metadata !124} ; [ DW_TAG_member ]
!204 = metadata !{i32 458765, metadata !120, metadata !"_M_names", metadata !116, i32 496, i64 64, i64 64, i64 256, i32 1, metadata !205} ; [ DW_TAG_member ]
!205 = metadata !{i32 458767, metadata !19, metadata !"", metadata !19, i32 0, i64 64, i64 64, i64 0, i32 0, metadata !206} ; [ DW_TAG_pointer_type ]
!206 = metadata !{i32 458767, metadata !19, metadata !"", metadata !19, i32 0, i64 64, i64 64, i64 0, i32 0, metadata !172} ; [ DW_TAG_pointer_type ]
!207 = metadata !{i32 458798, i32 0, metadata !120, metadata !"_M_add_reference", metadata !"_M_add_reference", metadata !"_ZNSt6locale5_Impl16_M_add_referenceEv", metadata !116, i32 506, metadata !208, i1 false, i1 false, i32 0, i32 0, null, i1 false} ; [ DW_TAG_subprogram ]
!208 = metadata !{i32 458773, metadata !19, metadata !"", metadata !19, i32 0, i64 0, i64 0, i64 0, i32 0, null, metadata !209, i32 0, null} ; [ DW_TAG_subroutine_type ]
!209 = metadata !{null, metadata !210}
!210 = metadata !{i32 458767, metadata !19, metadata !"", metadata !19, i32 0, i64 64, i64 64, i64 0, i32 64, metadata !120} ; [ DW_TAG_pointer_type ]
!211 = metadata !{i32 458798, i32 0, metadata !120, metadata !"_M_remove_reference", metadata !"_M_remove_reference", metadata !"_ZNSt6locale5_Impl19_M_remove_referenceEv", metadata !116, i32 510, metadata !208, i1 false, i1 false, i32 0, i32 0, null, i1 false} ; [ DW_TAG_subprogram ]
!212 = metadata !{i32 458798, i32 0, metadata !120, metadata !"_Impl", metadata !"_Impl", metadata !"", metadata !116, i32 521, metadata !213, i1 false, i1 false, i32 0, i32 0, null, i1 false} ; [ DW_TAG_subprogram ]
!213 = metadata !{i32 458773, metadata !19, metadata !"", metadata !19, i32 0, i64 0, i64 0, i64 0, i32 0, null, metadata !214, i32 0, null} ; [ DW_TAG_subroutine_type ]
!214 = metadata !{null, metadata !210, metadata !215, metadata !138}
!215 = metadata !{i32 458768, metadata !19, metadata !"", metadata !19, i32 0, i64 64, i64 64, i64 0, i32 0, metadata !216} ; [ DW_TAG_reference_type ]
!216 = metadata !{i32 458790, metadata !115, metadata !"", metadata !19, i32 0, i64 320, i64 64, i64 0, i32 0, metadata !120} ; [ DW_TAG_const_type ]
!217 = metadata !{i32 458798, i32 0, metadata !120, metadata !"_Impl", metadata !"_Impl", metadata !"", metadata !116, i32 522, metadata !218, i1 false, i1 false, i32 0, i32 0, null, i1 false} ; [ DW_TAG_subprogram ]
!218 = metadata !{i32 458773, metadata !19, metadata !"", metadata !19, i32 0, i64 0, i64 0, i64 0, i32 0, null, metadata !219, i32 0, null} ; [ DW_TAG_subroutine_type ]
!219 = metadata !{null, metadata !210, metadata !170, metadata !138}
!220 = metadata !{i32 458798, i32 0, metadata !120, metadata !"_Impl", metadata !"_Impl", metadata !"", metadata !116, i32 523, metadata !221, i1 false, i1 false, i32 0, i32 0, null, i1 false} ; [ DW_TAG_subprogram ]
!221 = metadata !{i32 458773, metadata !19, metadata !"", metadata !19, i32 0, i64 0, i64 0, i64 0, i32 0, null, metadata !222, i32 0, null} ; [ DW_TAG_subroutine_type ]
!222 = metadata !{null, metadata !210, metadata !138}
!223 = metadata !{i32 458798, i32 0, metadata !120, metadata !"~_Impl", metadata !"~_Impl", metadata !"", metadata !116, i32 525, metadata !224, i1 false, i1 false, i32 0, i32 0, null, i1 false} ; [ DW_TAG_subprogram ]
!224 = metadata !{i32 458773, metadata !19, metadata !"", metadata !19, i32 0, i64 0, i64 0, i64 0, i32 0, null, metadata !225, i32 0, null} ; [ DW_TAG_subroutine_type ]
!225 = metadata !{null, metadata !210, metadata !31}
!226 = metadata !{i32 458798, i32 0, metadata !120, metadata !"_Impl", metadata !"_Impl", metadata !"", metadata !116, i32 527, metadata !227, i1 false, i1 false, i32 0, i32 0, null, i1 false} ; [ DW_TAG_subprogram ]
!227 = metadata !{i32 458773, metadata !19, metadata !"", metadata !19, i32 0, i64 0, i64 0, i64 0, i32 0, null, metadata !228, i32 0, null} ; [ DW_TAG_subroutine_type ]
!228 = metadata !{null, metadata !210, metadata !215}
!229 = metadata !{i32 458798, i32 0, metadata !120, metadata !"operator=", metadata !"operator=", metadata !"_ZNSt6locale5_ImplaSERKS0_", metadata !116, i32 530, metadata !227, i1 false, i1 false, i32 0, i32 0, null, i1 false} ; [ DW_TAG_subprogram ]
!230 = metadata !{i32 458798, i32 0, metadata !120, metadata !"_M_check_same_name", metadata !"_M_check_same_name", metadata !"_ZNSt6locale5_Impl18_M_check_same_nameEv", metadata !116, i32 533, metadata !231, i1 false, i1 false, i32 0, i32 0, null, i1 false} ; [ DW_TAG_subprogram ]
!231 = metadata !{i32 458773, metadata !19, metadata !"", metadata !19, i32 0, i64 0, i64 0, i64 0, i32 0, null, metadata !232, i32 0, null} ; [ DW_TAG_subroutine_type ]
!232 = metadata !{metadata !233, metadata !210}
!233 = metadata !{i32 458788, metadata !19, metadata !"bool", metadata !19, i32 0, i64 8, i64 8, i64 0, i32 0, i32 2} ; [ DW_TAG_base_type ]
!234 = metadata !{i32 458798, i32 0, metadata !120, metadata !"_M_replace_categories", metadata !"_M_replace_categories", metadata !"_ZNSt6locale5_Impl21_M_replace_categoriesEPKS0_i", metadata !116, i32 544, metadata !235, i1 false, i1 false, i32 0, i32 0, null, i1 false} ; [ DW_TAG_subprogram ]
!235 = metadata !{i32 458773, metadata !19, metadata !"", metadata !19, i32 0, i64 0, i64 0, i64 0, i32 0, null, metadata !236, i32 0, null} ; [ DW_TAG_subroutine_type ]
!236 = metadata !{null, metadata !210, metadata !237, metadata !31}
!237 = metadata !{i32 458767, metadata !19, metadata !"", metadata !19, i32 0, i64 64, i64 64, i64 0, i32 0, metadata !216} ; [ DW_TAG_pointer_type ]
!238 = metadata !{i32 458798, i32 0, metadata !120, metadata !"_M_replace_category", metadata !"_M_replace_category", metadata !"_ZNSt6locale5_Impl19_M_replace_categoryEPKS0_PKPKNS_2idE", metadata !116, i32 547, metadata !239, i1 false, i1 false, i32 0, i32 0, null, i1 false} ; [ DW_TAG_subprogram ]
!239 = metadata !{i32 458773, metadata !19, metadata !"", metadata !19, i32 0, i64 0, i64 0, i64 0, i32 0, null, metadata !240, i32 0, null} ; [ DW_TAG_subroutine_type ]
!240 = metadata !{null, metadata !210, metadata !237, metadata !241}
!241 = metadata !{i32 458767, metadata !19, metadata !"", metadata !19, i32 0, i64 64, i64 64, i64 0, i32 0, metadata !242} ; [ DW_TAG_pointer_type ]
!242 = metadata !{i32 458790, metadata !19, metadata !"", metadata !19, i32 0, i64 64, i64 64, i64 0, i32 0, metadata !243} ; [ DW_TAG_const_type ]
!243 = metadata !{i32 458767, metadata !19, metadata !"", metadata !19, i32 0, i64 64, i64 64, i64 0, i32 0, metadata !244} ; [ DW_TAG_pointer_type ]
!244 = metadata !{i32 458790, metadata !115, metadata !"", metadata !19, i32 0, i64 64, i64 64, i64 0, i32 0, metadata !245} ; [ DW_TAG_const_type ]
!245 = metadata !{i32 458771, metadata !115, metadata !"id", metadata !116, i32 434, i64 64, i64 64, i64 0, i32 0, null, metadata !246, i32 0, null} ; [ DW_TAG_structure_type ]
!246 = metadata !{metadata !247, metadata !248, metadata !253, metadata !254, metadata !257}
!247 = metadata !{i32 458765, metadata !245, metadata !"_M_index", metadata !116, i32 450, i64 64, i64 64, i64 0, i32 1, metadata !138} ; [ DW_TAG_member ]
!248 = metadata !{i32 458798, i32 0, metadata !245, metadata !"operator=", metadata !"operator=", metadata !"_ZNSt6locale2idaSERKS0_", metadata !116, i32 456, metadata !249, i1 false, i1 false, i32 0, i32 0, null, i1 false} ; [ DW_TAG_subprogram ]
!249 = metadata !{i32 458773, metadata !19, metadata !"", metadata !19, i32 0, i64 0, i64 0, i64 0, i32 0, null, metadata !250, i32 0, null} ; [ DW_TAG_subroutine_type ]
!250 = metadata !{null, metadata !251, metadata !252}
!251 = metadata !{i32 458767, metadata !19, metadata !"", metadata !19, i32 0, i64 64, i64 64, i64 0, i32 64, metadata !245} ; [ DW_TAG_pointer_type ]
!252 = metadata !{i32 458768, metadata !19, metadata !"", metadata !19, i32 0, i64 64, i64 64, i64 0, i32 0, metadata !244} ; [ DW_TAG_reference_type ]
!253 = metadata !{i32 458798, i32 0, metadata !245, metadata !"id", metadata !"id", metadata !"", metadata !116, i32 458, metadata !249, i1 false, i1 false, i32 0, i32 0, null, i1 false} ; [ DW_TAG_subprogram ]
!254 = metadata !{i32 458798, i32 0, metadata !245, metadata !"id", metadata !"id", metadata !"", metadata !116, i32 464, metadata !255, i1 false, i1 false, i32 0, i32 0, null, i1 false} ; [ DW_TAG_subprogram ]
!255 = metadata !{i32 458773, metadata !19, metadata !"", metadata !19, i32 0, i64 0, i64 0, i64 0, i32 0, null, metadata !256, i32 0, null} ; [ DW_TAG_subroutine_type ]
!256 = metadata !{null, metadata !251}
!257 = metadata !{i32 458798, i32 0, metadata !245, metadata !"_M_id", metadata !"_M_id", metadata !"_ZNKSt6locale2id5_M_idEv", metadata !116, i32 467, metadata !258, i1 false, i1 false, i32 0, i32 0, null, i1 false} ; [ DW_TAG_subprogram ]
!258 = metadata !{i32 458773, metadata !19, metadata !"", metadata !19, i32 0, i64 0, i64 0, i64 0, i32 0, null, metadata !259, i32 0, null} ; [ DW_TAG_subroutine_type ]
!259 = metadata !{metadata !138, metadata !260}
!260 = metadata !{i32 458767, metadata !19, metadata !"", metadata !19, i32 0, i64 64, i64 64, i64 0, i32 64, metadata !244} ; [ DW_TAG_pointer_type ]
!261 = metadata !{i32 458798, i32 0, metadata !120, metadata !"_M_replace_facet", metadata !"_M_replace_facet", metadata !"_ZNSt6locale5_Impl16_M_replace_facetEPKS0_PKNS_2idE", metadata !116, i32 550, metadata !262, i1 false, i1 false, i32 0, i32 0, null, i1 false} ; [ DW_TAG_subprogram ]
!262 = metadata !{i32 458773, metadata !19, metadata !"", metadata !19, i32 0, i64 0, i64 0, i64 0, i32 0, null, metadata !263, i32 0, null} ; [ DW_TAG_subroutine_type ]
!263 = metadata !{null, metadata !210, metadata !237, metadata !243}
!264 = metadata !{i32 458798, i32 0, metadata !120, metadata !"_M_install_facet", metadata !"_M_install_facet", metadata !"_ZNSt6locale5_Impl16_M_install_facetEPKNS_2idEPKNS_5facetE", metadata !116, i32 553, metadata !265, i1 false, i1 false, i32 0, i32 0, null, i1 false} ; [ DW_TAG_subprogram ]
!265 = metadata !{i32 458773, metadata !19, metadata !"", metadata !19, i32 0, i64 0, i64 0, i64 0, i32 0, null, metadata !266, i32 0, null} ; [ DW_TAG_subroutine_type ]
!266 = metadata !{null, metadata !210, metadata !243, metadata !125}
!267 = metadata !{i32 458798, i32 0, metadata !120, metadata !"_M_install_cache", metadata !"_M_install_cache", metadata !"_ZNSt6locale5_Impl16_M_install_cacheEPKNS_5facetEm", metadata !116, i32 561, metadata !268, i1 false, i1 false, i32 0, i32 0, null, i1 false} ; [ DW_TAG_subprogram ]
!268 = metadata !{i32 458773, metadata !19, metadata !"", metadata !19, i32 0, i64 0, i64 0, i64 0, i32 0, null, metadata !269, i32 0, null} ; [ DW_TAG_subroutine_type ]
!269 = metadata !{null, metadata !210, metadata !125, metadata !138}
!270 = metadata !{i32 458798, i32 0, metadata !115, metadata !"locale", metadata !"locale", metadata !"", metadata !116, i32 123, metadata !271, i1 false, i1 false, i32 0, i32 0, null, i1 false} ; [ DW_TAG_subprogram ]
!271 = metadata !{i32 458773, metadata !19, metadata !"", metadata !19, i32 0, i64 0, i64 0, i64 0, i32 0, null, metadata !272, i32 0, null} ; [ DW_TAG_subroutine_type ]
!272 = metadata !{null, metadata !273}
!273 = metadata !{i32 458767, metadata !19, metadata !"", metadata !19, i32 0, i64 64, i64 64, i64 0, i32 64, metadata !115} ; [ DW_TAG_pointer_type ]
!274 = metadata !{i32 458798, i32 0, metadata !115, metadata !"locale", metadata !"locale", metadata !"", metadata !116, i32 132, metadata !275, i1 false, i1 false, i32 0, i32 0, null, i1 false} ; [ DW_TAG_subprogram ]
!275 = metadata !{i32 458773, metadata !19, metadata !"", metadata !19, i32 0, i64 0, i64 0, i64 0, i32 0, null, metadata !276, i32 0, null} ; [ DW_TAG_subroutine_type ]
!276 = metadata !{null, metadata !273, metadata !277}
!277 = metadata !{i32 458768, metadata !19, metadata !"", metadata !19, i32 0, i64 64, i64 64, i64 0, i32 0, metadata !278} ; [ DW_TAG_reference_type ]
!278 = metadata !{i32 458790, metadata !18, metadata !"", metadata !19, i32 0, i64 64, i64 64, i64 0, i32 0, metadata !115} ; [ DW_TAG_const_type ]
!279 = metadata !{i32 458798, i32 0, metadata !115, metadata !"locale", metadata !"locale", metadata !"", metadata !116, i32 143, metadata !280, i1 false, i1 false, i32 0, i32 0, null, i1 false} ; [ DW_TAG_subprogram ]
!280 = metadata !{i32 458773, metadata !19, metadata !"", metadata !19, i32 0, i64 0, i64 0, i64 0, i32 0, null, metadata !281, i32 0, null} ; [ DW_TAG_subroutine_type ]
!281 = metadata !{null, metadata !273, metadata !170}
!282 = metadata !{i32 458798, i32 0, metadata !115, metadata !"locale", metadata !"locale", metadata !"", metadata !116, i32 157, metadata !283, i1 false, i1 false, i32 0, i32 0, null, i1 false} ; [ DW_TAG_subprogram ]
!283 = metadata !{i32 458773, metadata !19, metadata !"", metadata !19, i32 0, i64 0, i64 0, i64 0, i32 0, null, metadata !284, i32 0, null} ; [ DW_TAG_subroutine_type ]
!284 = metadata !{null, metadata !273, metadata !277, metadata !170, metadata !31}
!285 = metadata !{i32 458798, i32 0, metadata !115, metadata !"locale", metadata !"locale", metadata !"", metadata !116, i32 170, metadata !286, i1 false, i1 false, i32 0, i32 0, null, i1 false} ; [ DW_TAG_subprogram ]
!286 = metadata !{i32 458773, metadata !19, metadata !"", metadata !19, i32 0, i64 0, i64 0, i64 0, i32 0, null, metadata !287, i32 0, null} ; [ DW_TAG_subroutine_type ]
!287 = metadata !{null, metadata !273, metadata !277, metadata !277, metadata !31}
!288 = metadata !{i32 458798, i32 0, metadata !115, metadata !"~locale", metadata !"~locale", metadata !"", metadata !116, i32 186, metadata !289, i1 false, i1 false, i32 0, i32 0, null, i1 false} ; [ DW_TAG_subprogram ]
!289 = metadata !{i32 458773, metadata !19, metadata !"", metadata !19, i32 0, i64 0, i64 0, i64 0, i32 0, null, metadata !290, i32 0, null} ; [ DW_TAG_subroutine_type ]
!290 = metadata !{null, metadata !273, metadata !31}
!291 = metadata !{i32 458798, i32 0, metadata !115, metadata !"operator=", metadata !"operator=", metadata !"_ZNSt6localeaSERKS_", metadata !116, i32 197, metadata !292, i1 false, i1 false, i32 0, i32 0, null, i1 false} ; [ DW_TAG_subprogram ]
!292 = metadata !{i32 458773, metadata !19, metadata !"", metadata !19, i32 0, i64 0, i64 0, i64 0, i32 0, null, metadata !293, i32 0, null} ; [ DW_TAG_subroutine_type ]
!293 = metadata !{metadata !277, metadata !273, metadata !277}
!294 = metadata !{i32 458798, i32 0, metadata !115, metadata !"name", metadata !"name", metadata !"_ZNKSt6locale4nameEv", metadata !116, i32 221, metadata !295, i1 false, i1 false, i32 0, i32 0, null, i1 false} ; [ DW_TAG_subprogram ]
!295 = metadata !{i32 458773, metadata !19, metadata !"", metadata !19, i32 0, i64 0, i64 0, i64 0, i32 0, null, metadata !296, i32 0, null} ; [ DW_TAG_subroutine_type ]
!296 = metadata !{metadata !297, metadata !757}
!297 = metadata !{i32 458774, metadata !18, metadata !"string", metadata !298, i32 56, i64 0, i64 0, i64 0, i32 0, metadata !299} ; [ DW_TAG_typedef ]
!298 = metadata !{i32 458769, i32 0, i32 4, metadata !"stringfwd.h", metadata !"/usr/local/.recherche-cairn/Vivado-2013.2/Vivado_HLS/2013.2/Linux_x86_64/tools/llvm_gcc/bin/../lib/gcc/x86_64-unknown-linux-gnu/4.2.1/../../../../include/c++/4.2.1/bits", metadata !"4.2.1 (Based on Apple Inc. build 5658) (LLVM build 2.7)", i1 false, i1 false, metadata !"", i32 0} ; [ DW_TAG_compile_unit ]
!299 = metadata !{i32 458771, metadata !18, metadata !"basic_string<char,std::char_traits<char>,std::allocator<char> >", metadata !298, i32 56, i64 64, i64 64, i64 0, i32 0, null, metadata !300, i32 0, null} ; [ DW_TAG_structure_type ]
!300 = metadata !{metadata !301, metadata !368, metadata !373, metadata !377, metadata !425, metadata !475, metadata !476, metadata !479, metadata !482, metadata !485, metadata !488, metadata !491, metadata !494, metadata !495, metadata !498, metadata !501, metadata !505, metadata !508, metadata !511, metadata !514, metadata !515, metadata !516, metadata !517, metadata !520, metadata !524, metadata !527, metadata !530, metadata !533, metadata !536, metadata !539, metadata !542, metadata !546, metadata !549, metadata !552, metadata !555, metadata !558, metadata !559, metadata !560, metadata !564, metadata !568, metadata !569, metadata !570, metadata !573, metadata !574, metadata !575, metadata !578, metadata !581, metadata !582, metadata !583, metadata !584, metadata !587, metadata !590, metadata !593, metadata !594, metadata !595, metadata !596, metadata !597, metadata !598, metadata !599, metadata !602, metadata !605, metadata !606, metadata !609, metadata !612, metadata !613, metadata !614, metadata !615, metadata !616, metadata !617, metadata !620, metadata !623, metadata !626, metadata !629, metadata !632, metadata !635, metadata !638, metadata !641, metadata !644, metadata !647, metadata !650, metadata !653, metadata !656, metadata !659, metadata !662, metadata !665, metadata !668, metadata !671, metadata !674, metadata !677, metadata !680, metadata !683, metadata !686, metadata !687, metadata !688, metadata !691, metadata !694, metadata !697, metadata !700, metadata !701, metadata !704, metadata !707, metadata !710, metadata !713, metadata !716, metadata !717, metadata !718, metadata !719, metadata !720, metadata !721, metadata !722, metadata !723, metadata !724, metadata !725, metadata !726, metadata !727, metadata !728, metadata !729, metadata !730, metadata !731, metadata !732, metadata !733, metadata !734, metadata !735, metadata !736, metadata !739, metadata !742, metadata !745, metadata !748, metadata !751, metadata !754}
!301 = metadata !{i32 458765, metadata !299, metadata !"_M_dataplus", metadata !302, i32 276, i64 64, i64 64, i64 0, i32 1, metadata !303} ; [ DW_TAG_member ]
!302 = metadata !{i32 458769, i32 0, i32 4, metadata !"basic_string.h", metadata !"/usr/local/.recherche-cairn/Vivado-2013.2/Vivado_HLS/2013.2/Linux_x86_64/tools/llvm_gcc/bin/../lib/gcc/x86_64-unknown-linux-gnu/4.2.1/../../../../include/c++/4.2.1/bits", metadata !"4.2.1 (Based on Apple Inc. build 5658) (LLVM build 2.7)", i1 false, i1 false, metadata !"", i32 0} ; [ DW_TAG_compile_unit ]
!303 = metadata !{i32 458771, metadata !299, metadata !"_Alloc_hider", metadata !302, i32 260, i64 64, i64 64, i64 0, i32 0, null, metadata !304, i32 0, null} ; [ DW_TAG_structure_type ]
!304 = metadata !{metadata !305, metadata !363, metadata !364}
!305 = metadata !{i32 458780, metadata !299, metadata !"", null, i32 0, i64 0, i64 0, i64 0, i32 0, metadata !306} ; [ DW_TAG_inheritance ]
!306 = metadata !{i32 458771, metadata !18, metadata !"allocator<char>", metadata !298, i32 49, i64 8, i64 8, i64 0, i32 0, null, metadata !307, i32 0, null} ; [ DW_TAG_structure_type ]
!307 = metadata !{metadata !308, metadata !350, metadata !355, metadata !360}
!308 = metadata !{i32 458780, metadata !18, metadata !"", null, i32 0, i64 0, i64 0, i64 0, i32 0, metadata !309} ; [ DW_TAG_inheritance ]
!309 = metadata !{i32 458771, metadata !310, metadata !"new_allocator<char>", metadata !312, i32 54, i64 8, i64 8, i64 0, i32 0, null, metadata !313, i32 0, null} ; [ DW_TAG_structure_type ]
!310 = metadata !{i32 458809, metadata !19, metadata !"__gnu_cxx", metadata !311, i32 155} ; [ DW_TAG_namespace ]
!311 = metadata !{i32 458769, i32 0, i32 4, metadata !"cstdio", metadata !"/usr/local/.recherche-cairn/Vivado-2013.2/Vivado_HLS/2013.2/Linux_x86_64/tools/llvm_gcc/bin/../lib/gcc/x86_64-unknown-linux-gnu/4.2.1/../../../../include/c++/4.2.1", metadata !"4.2.1 (Based on Apple Inc. build 5658) (LLVM build 2.7)", i1 false, i1 false, metadata !"", i32 0} ; [ DW_TAG_compile_unit ]
!312 = metadata !{i32 458769, i32 0, i32 4, metadata !"new_allocator.h", metadata !"/usr/local/.recherche-cairn/Vivado-2013.2/Vivado_HLS/2013.2/Linux_x86_64/tools/llvm_gcc/bin/../lib/gcc/x86_64-unknown-linux-gnu/4.2.1/../../../../include/c++/4.2.1/ext", metadata !"4.2.1 (Based on Apple Inc. build 5658) (LLVM build 2.7)", i1 false, i1 false, metadata !"", i32 0} ; [ DW_TAG_compile_unit ]
!313 = metadata !{metadata !314, metadata !318, metadata !323, metadata !326, metadata !331, metadata !335, metadata !338, metadata !341, metadata !344, metadata !347}
!314 = metadata !{i32 458798, i32 0, metadata !309, metadata !"new_allocator", metadata !"new_allocator", metadata !"", metadata !312, i32 68, metadata !315, i1 false, i1 false, i32 0, i32 0, null, i1 false} ; [ DW_TAG_subprogram ]
!315 = metadata !{i32 458773, metadata !19, metadata !"", metadata !19, i32 0, i64 0, i64 0, i64 0, i32 0, null, metadata !316, i32 0, null} ; [ DW_TAG_subroutine_type ]
!316 = metadata !{null, metadata !317}
!317 = metadata !{i32 458767, metadata !19, metadata !"", metadata !19, i32 0, i64 64, i64 64, i64 0, i32 64, metadata !309} ; [ DW_TAG_pointer_type ]
!318 = metadata !{i32 458798, i32 0, metadata !309, metadata !"new_allocator", metadata !"new_allocator", metadata !"", metadata !312, i32 70, metadata !319, i1 false, i1 false, i32 0, i32 0, null, i1 false} ; [ DW_TAG_subprogram ]
!319 = metadata !{i32 458773, metadata !19, metadata !"", metadata !19, i32 0, i64 0, i64 0, i64 0, i32 0, null, metadata !320, i32 0, null} ; [ DW_TAG_subroutine_type ]
!320 = metadata !{null, metadata !317, metadata !321}
!321 = metadata !{i32 458768, metadata !19, metadata !"", metadata !19, i32 0, i64 64, i64 64, i64 0, i32 0, metadata !322} ; [ DW_TAG_reference_type ]
!322 = metadata !{i32 458790, metadata !310, metadata !"", metadata !19, i32 0, i64 8, i64 8, i64 0, i32 0, metadata !309} ; [ DW_TAG_const_type ]
!323 = metadata !{i32 458798, i32 0, metadata !309, metadata !"~new_allocator", metadata !"~new_allocator", metadata !"", metadata !312, i32 75, metadata !324, i1 false, i1 false, i32 0, i32 0, null, i1 false} ; [ DW_TAG_subprogram ]
!324 = metadata !{i32 458773, metadata !19, metadata !"", metadata !19, i32 0, i64 0, i64 0, i64 0, i32 0, null, metadata !325, i32 0, null} ; [ DW_TAG_subroutine_type ]
!325 = metadata !{null, metadata !317, metadata !31}
!326 = metadata !{i32 458798, i32 0, metadata !309, metadata !"address", metadata !"address", metadata !"_ZNK9__gnu_cxx13new_allocatorIcE7addressERc", metadata !312, i32 78, metadata !327, i1 false, i1 false, i32 0, i32 0, null, i1 false} ; [ DW_TAG_subprogram ]
!327 = metadata !{i32 458773, metadata !19, metadata !"", metadata !19, i32 0, i64 0, i64 0, i64 0, i32 0, null, metadata !328, i32 0, null} ; [ DW_TAG_subroutine_type ]
!328 = metadata !{metadata !206, metadata !329, metadata !330}
!329 = metadata !{i32 458767, metadata !19, metadata !"", metadata !19, i32 0, i64 64, i64 64, i64 0, i32 64, metadata !322} ; [ DW_TAG_pointer_type ]
!330 = metadata !{i32 458768, metadata !19, metadata !"char", metadata !19, i32 0, i64 64, i64 64, i64 0, i32 0, metadata !172} ; [ DW_TAG_reference_type ]
!331 = metadata !{i32 458798, i32 0, metadata !309, metadata !"address", metadata !"address", metadata !"_ZNK9__gnu_cxx13new_allocatorIcE7addressERKc", metadata !312, i32 81, metadata !332, i1 false, i1 false, i32 0, i32 0, null, i1 false} ; [ DW_TAG_subprogram ]
!332 = metadata !{i32 458773, metadata !19, metadata !"", metadata !19, i32 0, i64 0, i64 0, i64 0, i32 0, null, metadata !333, i32 0, null} ; [ DW_TAG_subroutine_type ]
!333 = metadata !{metadata !170, metadata !329, metadata !334}
!334 = metadata !{i32 458768, metadata !19, metadata !"", metadata !19, i32 0, i64 64, i64 64, i64 0, i32 0, metadata !171} ; [ DW_TAG_reference_type ]
!335 = metadata !{i32 458798, i32 0, metadata !309, metadata !"allocate", metadata !"allocate", metadata !"_ZN9__gnu_cxx13new_allocatorIcE8allocateEmPKv", metadata !312, i32 86, metadata !336, i1 false, i1 false, i32 0, i32 0, null, i1 false} ; [ DW_TAG_subprogram ]
!336 = metadata !{i32 458773, metadata !19, metadata !"", metadata !19, i32 0, i64 0, i64 0, i64 0, i32 0, null, metadata !337, i32 0, null} ; [ DW_TAG_subroutine_type ]
!337 = metadata !{metadata !206, metadata !317, metadata !140, metadata !101}
!338 = metadata !{i32 458798, i32 0, metadata !309, metadata !"deallocate", metadata !"deallocate", metadata !"_ZN9__gnu_cxx13new_allocatorIcE10deallocateEPcm", metadata !312, i32 96, metadata !339, i1 false, i1 false, i32 0, i32 0, null, i1 false} ; [ DW_TAG_subprogram ]
!339 = metadata !{i32 458773, metadata !19, metadata !"", metadata !19, i32 0, i64 0, i64 0, i64 0, i32 0, null, metadata !340, i32 0, null} ; [ DW_TAG_subroutine_type ]
!340 = metadata !{null, metadata !317, metadata !206, metadata !140}
!341 = metadata !{i32 458798, i32 0, metadata !309, metadata !"max_size", metadata !"max_size", metadata !"_ZNK9__gnu_cxx13new_allocatorIcE8max_sizeEv", metadata !312, i32 100, metadata !342, i1 false, i1 false, i32 0, i32 0, null, i1 false} ; [ DW_TAG_subprogram ]
!342 = metadata !{i32 458773, metadata !19, metadata !"", metadata !19, i32 0, i64 0, i64 0, i64 0, i32 0, null, metadata !343, i32 0, null} ; [ DW_TAG_subroutine_type ]
!343 = metadata !{metadata !138, metadata !329}
!344 = metadata !{i32 458798, i32 0, metadata !309, metadata !"construct", metadata !"construct", metadata !"_ZN9__gnu_cxx13new_allocatorIcE9constructEPcRKc", metadata !312, i32 106, metadata !345, i1 false, i1 false, i32 0, i32 0, null, i1 false} ; [ DW_TAG_subprogram ]
!345 = metadata !{i32 458773, metadata !19, metadata !"", metadata !19, i32 0, i64 0, i64 0, i64 0, i32 0, null, metadata !346, i32 0, null} ; [ DW_TAG_subroutine_type ]
!346 = metadata !{null, metadata !317, metadata !206, metadata !334}
!347 = metadata !{i32 458798, i32 0, metadata !309, metadata !"destroy", metadata !"destroy", metadata !"_ZN9__gnu_cxx13new_allocatorIcE7destroyEPc", metadata !312, i32 110, metadata !348, i1 false, i1 false, i32 0, i32 0, null, i1 false} ; [ DW_TAG_subprogram ]
!348 = metadata !{i32 458773, metadata !19, metadata !"", metadata !19, i32 0, i64 0, i64 0, i64 0, i32 0, null, metadata !349, i32 0, null} ; [ DW_TAG_subroutine_type ]
!349 = metadata !{null, metadata !317, metadata !206}
!350 = metadata !{i32 458798, i32 0, metadata !306, metadata !"allocator", metadata !"allocator", metadata !"", metadata !351, i32 100, metadata !352, i1 false, i1 false, i32 0, i32 0, null, i1 false} ; [ DW_TAG_subprogram ]
!351 = metadata !{i32 458769, i32 0, i32 4, metadata !"allocator.h", metadata !"/usr/local/.recherche-cairn/Vivado-2013.2/Vivado_HLS/2013.2/Linux_x86_64/tools/llvm_gcc/bin/../lib/gcc/x86_64-unknown-linux-gnu/4.2.1/../../../../include/c++/4.2.1/bits", metadata !"4.2.1 (Based on Apple Inc. build 5658) (LLVM build 2.7)", i1 false, i1 false, metadata !"", i32 0} ; [ DW_TAG_compile_unit ]
!352 = metadata !{i32 458773, metadata !19, metadata !"", metadata !19, i32 0, i64 0, i64 0, i64 0, i32 0, null, metadata !353, i32 0, null} ; [ DW_TAG_subroutine_type ]
!353 = metadata !{null, metadata !354}
!354 = metadata !{i32 458767, metadata !19, metadata !"", metadata !19, i32 0, i64 64, i64 64, i64 0, i32 64, metadata !306} ; [ DW_TAG_pointer_type ]
!355 = metadata !{i32 458798, i32 0, metadata !306, metadata !"allocator", metadata !"allocator", metadata !"", metadata !351, i32 102, metadata !356, i1 false, i1 false, i32 0, i32 0, null, i1 false} ; [ DW_TAG_subprogram ]
!356 = metadata !{i32 458773, metadata !19, metadata !"", metadata !19, i32 0, i64 0, i64 0, i64 0, i32 0, null, metadata !357, i32 0, null} ; [ DW_TAG_subroutine_type ]
!357 = metadata !{null, metadata !354, metadata !358}
!358 = metadata !{i32 458768, metadata !19, metadata !"", metadata !19, i32 0, i64 64, i64 64, i64 0, i32 0, metadata !359} ; [ DW_TAG_reference_type ]
!359 = metadata !{i32 458790, metadata !18, metadata !"", metadata !19, i32 0, i64 8, i64 8, i64 0, i32 0, metadata !306} ; [ DW_TAG_const_type ]
!360 = metadata !{i32 458798, i32 0, metadata !306, metadata !"~allocator", metadata !"~allocator", metadata !"", metadata !351, i32 108, metadata !361, i1 false, i1 false, i32 0, i32 0, null, i1 false} ; [ DW_TAG_subprogram ]
!361 = metadata !{i32 458773, metadata !19, metadata !"", metadata !19, i32 0, i64 0, i64 0, i64 0, i32 0, null, metadata !362, i32 0, null} ; [ DW_TAG_subroutine_type ]
!362 = metadata !{null, metadata !354, metadata !31}
!363 = metadata !{i32 458765, metadata !303, metadata !"_M_p", metadata !302, i32 264, i64 64, i64 64, i64 0, i32 0, metadata !206} ; [ DW_TAG_member ]
!364 = metadata !{i32 458798, i32 0, metadata !303, metadata !"_Alloc_hider", metadata !"_Alloc_hider", metadata !"", metadata !302, i32 261, metadata !365, i1 false, i1 false, i32 0, i32 0, null, i1 false} ; [ DW_TAG_subprogram ]
!365 = metadata !{i32 458773, metadata !19, metadata !"", metadata !19, i32 0, i64 0, i64 0, i64 0, i32 0, null, metadata !366, i32 0, null} ; [ DW_TAG_subroutine_type ]
!366 = metadata !{null, metadata !367, metadata !206, metadata !358}
!367 = metadata !{i32 458767, metadata !19, metadata !"", metadata !19, i32 0, i64 64, i64 64, i64 0, i32 64, metadata !303} ; [ DW_TAG_pointer_type ]
!368 = metadata !{i32 458798, i32 0, metadata !299, metadata !"_M_data", metadata !"_M_data", metadata !"_ZNKSs7_M_dataEv", metadata !302, i32 279, metadata !369, i1 false, i1 false, i32 0, i32 0, null, i1 false} ; [ DW_TAG_subprogram ]
!369 = metadata !{i32 458773, metadata !19, metadata !"", metadata !19, i32 0, i64 0, i64 0, i64 0, i32 0, null, metadata !370, i32 0, null} ; [ DW_TAG_subroutine_type ]
!370 = metadata !{metadata !206, metadata !371}
!371 = metadata !{i32 458767, metadata !19, metadata !"", metadata !19, i32 0, i64 64, i64 64, i64 0, i32 64, metadata !372} ; [ DW_TAG_pointer_type ]
!372 = metadata !{i32 458790, metadata !18, metadata !"", metadata !19, i32 0, i64 64, i64 64, i64 0, i32 0, metadata !299} ; [ DW_TAG_const_type ]
!373 = metadata !{i32 458798, i32 0, metadata !299, metadata !"_M_data", metadata !"_M_data", metadata !"_ZNSs7_M_dataEPc", metadata !302, i32 283, metadata !374, i1 false, i1 false, i32 0, i32 0, null, i1 false} ; [ DW_TAG_subprogram ]
!374 = metadata !{i32 458773, metadata !19, metadata !"", metadata !19, i32 0, i64 0, i64 0, i64 0, i32 0, null, metadata !375, i32 0, null} ; [ DW_TAG_subroutine_type ]
!375 = metadata !{metadata !206, metadata !376, metadata !206}
!376 = metadata !{i32 458767, metadata !19, metadata !"", metadata !19, i32 0, i64 64, i64 64, i64 0, i32 64, metadata !299} ; [ DW_TAG_pointer_type ]
!377 = metadata !{i32 458798, i32 0, metadata !299, metadata !"_M_rep", metadata !"_M_rep", metadata !"_ZNKSs6_M_repEv", metadata !302, i32 287, metadata !378, i1 false, i1 false, i32 0, i32 0, null, i1 false} ; [ DW_TAG_subprogram ]
!378 = metadata !{i32 458773, metadata !19, metadata !"", metadata !19, i32 0, i64 0, i64 0, i64 0, i32 0, null, metadata !379, i32 0, null} ; [ DW_TAG_subroutine_type ]
!379 = metadata !{metadata !380, metadata !371}
!380 = metadata !{i32 458767, metadata !19, metadata !"", metadata !19, i32 0, i64 64, i64 64, i64 0, i32 0, metadata !381} ; [ DW_TAG_pointer_type ]
!381 = metadata !{i32 458771, metadata !299, metadata !"_Rep", metadata !302, i32 155, i64 192, i64 64, i64 0, i32 0, null, metadata !382, i32 0, null} ; [ DW_TAG_structure_type ]
!382 = metadata !{metadata !383, metadata !389, metadata !393, metadata !398, metadata !399, metadata !403, metadata !404, metadata !407, metadata !410, metadata !413, metadata !417, metadata !420, metadata !421, metadata !422}
!383 = metadata !{i32 458780, metadata !299, metadata !"", null, i32 0, i64 0, i64 0, i64 0, i32 0, metadata !384} ; [ DW_TAG_inheritance ]
!384 = metadata !{i32 458771, metadata !299, metadata !"_Rep_base", metadata !302, i32 148, i64 192, i64 64, i64 0, i32 0, null, metadata !385, i32 0, null} ; [ DW_TAG_structure_type ]
!385 = metadata !{metadata !386, metadata !387, metadata !388}
!386 = metadata !{i32 458765, metadata !384, metadata !"_M_length", metadata !302, i32 149, i64 64, i64 64, i64 0, i32 0, metadata !138} ; [ DW_TAG_member ]
!387 = metadata !{i32 458765, metadata !384, metadata !"_M_capacity", metadata !302, i32 150, i64 64, i64 64, i64 64, i32 0, metadata !138} ; [ DW_TAG_member ]
!388 = metadata !{i32 458765, metadata !384, metadata !"_M_refcount", metadata !302, i32 151, i64 32, i64 32, i64 128, i32 0, metadata !85} ; [ DW_TAG_member ]
!389 = metadata !{i32 458798, i32 0, metadata !381, metadata !"_S_empty_rep", metadata !"_S_empty_rep", metadata !"_ZNSs4_Rep12_S_empty_repEv", metadata !302, i32 180, metadata !390, i1 false, i1 false, i32 0, i32 0, null, i1 false} ; [ DW_TAG_subprogram ]
!390 = metadata !{i32 458773, metadata !19, metadata !"", metadata !19, i32 0, i64 0, i64 0, i64 0, i32 0, null, metadata !391, i32 0, null} ; [ DW_TAG_subroutine_type ]
!391 = metadata !{metadata !392}
!392 = metadata !{i32 458768, metadata !19, metadata !"basic_string<char,std::char_traits<char>,std::allocator<char> >_Rep", metadata !19, i32 0, i64 64, i64 64, i64 0, i32 0, metadata !381} ; [ DW_TAG_reference_type ]
!393 = metadata !{i32 458798, i32 0, metadata !381, metadata !"_M_is_leaked", metadata !"_M_is_leaked", metadata !"_ZNKSs4_Rep12_M_is_leakedEv", metadata !302, i32 190, metadata !394, i1 false, i1 false, i32 0, i32 0, null, i1 false} ; [ DW_TAG_subprogram ]
!394 = metadata !{i32 458773, metadata !19, metadata !"", metadata !19, i32 0, i64 0, i64 0, i64 0, i32 0, null, metadata !395, i32 0, null} ; [ DW_TAG_subroutine_type ]
!395 = metadata !{metadata !233, metadata !396}
!396 = metadata !{i32 458767, metadata !19, metadata !"", metadata !19, i32 0, i64 64, i64 64, i64 0, i32 64, metadata !397} ; [ DW_TAG_pointer_type ]
!397 = metadata !{i32 458790, metadata !299, metadata !"", metadata !19, i32 0, i64 192, i64 64, i64 0, i32 0, metadata !381} ; [ DW_TAG_const_type ]
!398 = metadata !{i32 458798, i32 0, metadata !381, metadata !"_M_is_shared", metadata !"_M_is_shared", metadata !"_ZNKSs4_Rep12_M_is_sharedEv", metadata !302, i32 194, metadata !394, i1 false, i1 false, i32 0, i32 0, null, i1 false} ; [ DW_TAG_subprogram ]
!399 = metadata !{i32 458798, i32 0, metadata !381, metadata !"_M_set_leaked", metadata !"_M_set_leaked", metadata !"_ZNSs4_Rep13_M_set_leakedEv", metadata !302, i32 198, metadata !400, i1 false, i1 false, i32 0, i32 0, null, i1 false} ; [ DW_TAG_subprogram ]
!400 = metadata !{i32 458773, metadata !19, metadata !"", metadata !19, i32 0, i64 0, i64 0, i64 0, i32 0, null, metadata !401, i32 0, null} ; [ DW_TAG_subroutine_type ]
!401 = metadata !{null, metadata !402}
!402 = metadata !{i32 458767, metadata !19, metadata !"", metadata !19, i32 0, i64 64, i64 64, i64 0, i32 64, metadata !381} ; [ DW_TAG_pointer_type ]
!403 = metadata !{i32 458798, i32 0, metadata !381, metadata !"_M_set_sharable", metadata !"_M_set_sharable", metadata !"_ZNSs4_Rep15_M_set_sharableEv", metadata !302, i32 202, metadata !400, i1 false, i1 false, i32 0, i32 0, null, i1 false} ; [ DW_TAG_subprogram ]
!404 = metadata !{i32 458798, i32 0, metadata !381, metadata !"_M_set_length_and_sharable", metadata !"_M_set_length_and_sharable", metadata !"_ZNSs4_Rep26_M_set_length_and_sharableEm", metadata !302, i32 206, metadata !405, i1 false, i1 false, i32 0, i32 0, null, i1 false} ; [ DW_TAG_subprogram ]
!405 = metadata !{i32 458773, metadata !19, metadata !"", metadata !19, i32 0, i64 0, i64 0, i64 0, i32 0, null, metadata !406, i32 0, null} ; [ DW_TAG_subroutine_type ]
!406 = metadata !{null, metadata !402, metadata !140}
!407 = metadata !{i32 458798, i32 0, metadata !381, metadata !"_M_refdata", metadata !"_M_refdata", metadata !"_ZNSs4_Rep10_M_refdataEv", metadata !302, i32 216, metadata !408, i1 false, i1 false, i32 0, i32 0, null, i1 false} ; [ DW_TAG_subprogram ]
!408 = metadata !{i32 458773, metadata !19, metadata !"", metadata !19, i32 0, i64 0, i64 0, i64 0, i32 0, null, metadata !409, i32 0, null} ; [ DW_TAG_subroutine_type ]
!409 = metadata !{metadata !206, metadata !402}
!410 = metadata !{i32 458798, i32 0, metadata !381, metadata !"_M_grab", metadata !"_M_grab", metadata !"_ZNSs4_Rep7_M_grabERKSaIcES2_", metadata !302, i32 220, metadata !411, i1 false, i1 false, i32 0, i32 0, null, i1 false} ; [ DW_TAG_subprogram ]
!411 = metadata !{i32 458773, metadata !19, metadata !"", metadata !19, i32 0, i64 0, i64 0, i64 0, i32 0, null, metadata !412, i32 0, null} ; [ DW_TAG_subroutine_type ]
!412 = metadata !{metadata !206, metadata !402, metadata !358, metadata !358}
!413 = metadata !{i32 458798, i32 0, metadata !381, metadata !"_S_create", metadata !"_S_create", metadata !"_ZNSs4_Rep9_S_createEmmRKSaIcE", metadata !414, i32 529, metadata !415, i1 false, i1 false, i32 0, i32 0, null, i1 false} ; [ DW_TAG_subprogram ]
!414 = metadata !{i32 458769, i32 0, i32 4, metadata !"basic_string.tcc", metadata !"/usr/local/.recherche-cairn/Vivado-2013.2/Vivado_HLS/2013.2/Linux_x86_64/tools/llvm_gcc/bin/../lib/gcc/x86_64-unknown-linux-gnu/4.2.1/../../../../include/c++/4.2.1/bits", metadata !"4.2.1 (Based on Apple Inc. build 5658) (LLVM build 2.7)", i1 false, i1 false, metadata !"", i32 0} ; [ DW_TAG_compile_unit ]
!415 = metadata !{i32 458773, metadata !19, metadata !"", metadata !19, i32 0, i64 0, i64 0, i64 0, i32 0, null, metadata !416, i32 0, null} ; [ DW_TAG_subroutine_type ]
!416 = metadata !{metadata !380, metadata !140, metadata !140, metadata !358}
!417 = metadata !{i32 458798, i32 0, metadata !381, metadata !"_M_dispose", metadata !"_M_dispose", metadata !"_ZNSs4_Rep10_M_disposeERKSaIcE", metadata !302, i32 231, metadata !418, i1 false, i1 false, i32 0, i32 0, null, i1 false} ; [ DW_TAG_subprogram ]
!418 = metadata !{i32 458773, metadata !19, metadata !"", metadata !19, i32 0, i64 0, i64 0, i64 0, i32 0, null, metadata !419, i32 0, null} ; [ DW_TAG_subroutine_type ]
!419 = metadata !{null, metadata !402, metadata !358}
!420 = metadata !{i32 458798, i32 0, metadata !381, metadata !"_M_destroy", metadata !"_M_destroy", metadata !"_ZNSs4_Rep10_M_destroyERKSaIcE", metadata !414, i32 427, metadata !418, i1 false, i1 false, i32 0, i32 0, null, i1 false} ; [ DW_TAG_subprogram ]
!421 = metadata !{i32 458798, i32 0, metadata !381, metadata !"_M_refcopy", metadata !"_M_refcopy", metadata !"_ZNSs4_Rep10_M_refcopyEv", metadata !302, i32 245, metadata !408, i1 false, i1 false, i32 0, i32 0, null, i1 false} ; [ DW_TAG_subprogram ]
!422 = metadata !{i32 458798, i32 0, metadata !381, metadata !"_M_clone", metadata !"_M_clone", metadata !"_ZNSs4_Rep8_M_cloneERKSaIcEm", metadata !414, i32 606, metadata !423, i1 false, i1 false, i32 0, i32 0, null, i1 false} ; [ DW_TAG_subprogram ]
!423 = metadata !{i32 458773, metadata !19, metadata !"", metadata !19, i32 0, i64 0, i64 0, i64 0, i32 0, null, metadata !424, i32 0, null} ; [ DW_TAG_subroutine_type ]
!424 = metadata !{metadata !206, metadata !402, metadata !358, metadata !140}
!425 = metadata !{i32 458798, i32 0, metadata !299, metadata !"_M_ibegin", metadata !"_M_ibegin", metadata !"_ZNKSs9_M_ibeginEv", metadata !302, i32 293, metadata !426, i1 false, i1 false, i32 0, i32 0, null, i1 false} ; [ DW_TAG_subprogram ]
!426 = metadata !{i32 458773, metadata !19, metadata !"", metadata !19, i32 0, i64 0, i64 0, i64 0, i32 0, null, metadata !427, i32 0, null} ; [ DW_TAG_subroutine_type ]
!427 = metadata !{metadata !428, metadata !371}
!428 = metadata !{i32 458771, metadata !310, metadata !"__normal_iterator<char*,std::basic_string<char, std::char_traits<char>, std::allocator<char> > >", metadata !429, i32 637, i64 64, i64 64, i64 0, i32 0, null, metadata !430, i32 0, null} ; [ DW_TAG_structure_type ]
!429 = metadata !{i32 458769, i32 0, i32 4, metadata !"stl_iterator.h", metadata !"/usr/local/.recherche-cairn/Vivado-2013.2/Vivado_HLS/2013.2/Linux_x86_64/tools/llvm_gcc/bin/../lib/gcc/x86_64-unknown-linux-gnu/4.2.1/../../../../include/c++/4.2.1/bits", metadata !"4.2.1 (Based on Apple Inc. build 5658) (LLVM build 2.7)", i1 false, i1 false, metadata !"", i32 0} ; [ DW_TAG_compile_unit ]
!430 = metadata !{metadata !431, metadata !432, metadata !436, metadata !441, metadata !446, metadata !449, metadata !453, metadata !456, metadata !457, metadata !458, metadata !464, metadata !467, metadata !470, metadata !471, metadata !472}
!431 = metadata !{i32 458765, metadata !428, metadata !"_M_current", metadata !429, i32 639, i64 64, i64 64, i64 0, i32 2, metadata !206} ; [ DW_TAG_member ]
!432 = metadata !{i32 458798, i32 0, metadata !428, metadata !"__normal_iterator", metadata !"__normal_iterator", metadata !"", metadata !429, i32 650, metadata !433, i1 false, i1 false, i32 0, i32 0, null, i1 false} ; [ DW_TAG_subprogram ]
!433 = metadata !{i32 458773, metadata !19, metadata !"", metadata !19, i32 0, i64 0, i64 0, i64 0, i32 0, null, metadata !434, i32 0, null} ; [ DW_TAG_subroutine_type ]
!434 = metadata !{null, metadata !435}
!435 = metadata !{i32 458767, metadata !19, metadata !"", metadata !19, i32 0, i64 64, i64 64, i64 0, i32 64, metadata !428} ; [ DW_TAG_pointer_type ]
!436 = metadata !{i32 458798, i32 0, metadata !428, metadata !"__normal_iterator", metadata !"__normal_iterator", metadata !"", metadata !429, i32 653, metadata !437, i1 false, i1 false, i32 0, i32 0, null, i1 false} ; [ DW_TAG_subprogram ]
!437 = metadata !{i32 458773, metadata !19, metadata !"", metadata !19, i32 0, i64 0, i64 0, i64 0, i32 0, null, metadata !438, i32 0, null} ; [ DW_TAG_subroutine_type ]
!438 = metadata !{null, metadata !435, metadata !439}
!439 = metadata !{i32 458768, metadata !19, metadata !"", metadata !19, i32 0, i64 64, i64 64, i64 0, i32 0, metadata !440} ; [ DW_TAG_reference_type ]
!440 = metadata !{i32 458790, metadata !19, metadata !"", metadata !19, i32 0, i64 64, i64 64, i64 0, i32 0, metadata !206} ; [ DW_TAG_const_type ]
!441 = metadata !{i32 458798, i32 0, metadata !428, metadata !"operator*", metadata !"operator*", metadata !"_ZNK9__gnu_cxx17__normal_iteratorIPcSsEdeEv", metadata !429, i32 665, metadata !442, i1 false, i1 false, i32 0, i32 0, null, i1 false} ; [ DW_TAG_subprogram ]
!442 = metadata !{i32 458773, metadata !19, metadata !"", metadata !19, i32 0, i64 0, i64 0, i64 0, i32 0, null, metadata !443, i32 0, null} ; [ DW_TAG_subroutine_type ]
!443 = metadata !{metadata !330, metadata !444}
!444 = metadata !{i32 458767, metadata !19, metadata !"", metadata !19, i32 0, i64 64, i64 64, i64 0, i32 64, metadata !445} ; [ DW_TAG_pointer_type ]
!445 = metadata !{i32 458790, metadata !310, metadata !"", metadata !19, i32 0, i64 64, i64 64, i64 0, i32 0, metadata !428} ; [ DW_TAG_const_type ]
!446 = metadata !{i32 458798, i32 0, metadata !428, metadata !"operator->", metadata !"operator->", metadata !"_ZNK9__gnu_cxx17__normal_iteratorIPcSsEptEv", metadata !429, i32 669, metadata !447, i1 false, i1 false, i32 0, i32 0, null, i1 false} ; [ DW_TAG_subprogram ]
!447 = metadata !{i32 458773, metadata !19, metadata !"", metadata !19, i32 0, i64 0, i64 0, i64 0, i32 0, null, metadata !448, i32 0, null} ; [ DW_TAG_subroutine_type ]
!448 = metadata !{metadata !206, metadata !444}
!449 = metadata !{i32 458798, i32 0, metadata !428, metadata !"operator++", metadata !"operator++", metadata !"_ZN9__gnu_cxx17__normal_iteratorIPcSsEppEv", metadata !429, i32 673, metadata !450, i1 false, i1 false, i32 0, i32 0, null, i1 false} ; [ DW_TAG_subprogram ]
!450 = metadata !{i32 458773, metadata !19, metadata !"", metadata !19, i32 0, i64 0, i64 0, i64 0, i32 0, null, metadata !451, i32 0, null} ; [ DW_TAG_subroutine_type ]
!451 = metadata !{metadata !452, metadata !435}
!452 = metadata !{i32 458768, metadata !19, metadata !"__gnu_cxx__normal_iterator<char*,std::basic_string<char, std::char_traits<char>, std::allocator<char> > >", metadata !19, i32 0, i64 64, i64 64, i64 0, i32 0, metadata !428} ; [ DW_TAG_reference_type ]
!453 = metadata !{i32 458798, i32 0, metadata !428, metadata !"operator++", metadata !"operator++", metadata !"_ZN9__gnu_cxx17__normal_iteratorIPcSsEppEi", metadata !429, i32 680, metadata !454, i1 false, i1 false, i32 0, i32 0, null, i1 false} ; [ DW_TAG_subprogram ]
!454 = metadata !{i32 458773, metadata !19, metadata !"", metadata !19, i32 0, i64 0, i64 0, i64 0, i32 0, null, metadata !455, i32 0, null} ; [ DW_TAG_subroutine_type ]
!455 = metadata !{metadata !428, metadata !435, metadata !31}
!456 = metadata !{i32 458798, i32 0, metadata !428, metadata !"operator--", metadata !"operator--", metadata !"_ZN9__gnu_cxx17__normal_iteratorIPcSsEmmEv", metadata !429, i32 685, metadata !450, i1 false, i1 false, i32 0, i32 0, null, i1 false} ; [ DW_TAG_subprogram ]
!457 = metadata !{i32 458798, i32 0, metadata !428, metadata !"operator--", metadata !"operator--", metadata !"_ZN9__gnu_cxx17__normal_iteratorIPcSsEmmEi", metadata !429, i32 692, metadata !454, i1 false, i1 false, i32 0, i32 0, null, i1 false} ; [ DW_TAG_subprogram ]
!458 = metadata !{i32 458798, i32 0, metadata !428, metadata !"operator[]", metadata !"operator[]", metadata !"_ZNK9__gnu_cxx17__normal_iteratorIPcSsEixERKl", metadata !429, i32 697, metadata !459, i1 false, i1 false, i32 0, i32 0, null, i1 false} ; [ DW_TAG_subprogram ]
!459 = metadata !{i32 458773, metadata !19, metadata !"", metadata !19, i32 0, i64 0, i64 0, i64 0, i32 0, null, metadata !460, i32 0, null} ; [ DW_TAG_subroutine_type ]
!460 = metadata !{metadata !330, metadata !444, metadata !461}
!461 = metadata !{i32 458768, metadata !19, metadata !"ptrdiff_t", metadata !19, i32 0, i64 64, i64 64, i64 0, i32 0, metadata !462} ; [ DW_TAG_reference_type ]
!462 = metadata !{i32 458774, metadata !19, metadata !"ptrdiff_t", metadata !463, i32 231, i64 0, i64 0, i64 0, i32 0, metadata !35} ; [ DW_TAG_typedef ]
!463 = metadata !{i32 458769, i32 0, i32 4, metadata !"autopilot_ssdm_op.h", metadata !"/usr/local/.recherche-cairn/Vivado-2013.2/Vivado_HLS/2013.2/common/technology/autopilot/etc", metadata !"4.2.1 (Based on Apple Inc. build 5658) (LLVM build 2.7)", i1 false, i1 false, metadata !"", i32 0} ; [ DW_TAG_compile_unit ]
!464 = metadata !{i32 458798, i32 0, metadata !428, metadata !"operator+=", metadata !"operator+=", metadata !"_ZN9__gnu_cxx17__normal_iteratorIPcSsEpLERKl", metadata !429, i32 701, metadata !465, i1 false, i1 false, i32 0, i32 0, null, i1 false} ; [ DW_TAG_subprogram ]
!465 = metadata !{i32 458773, metadata !19, metadata !"", metadata !19, i32 0, i64 0, i64 0, i64 0, i32 0, null, metadata !466, i32 0, null} ; [ DW_TAG_subroutine_type ]
!466 = metadata !{metadata !452, metadata !435, metadata !461}
!467 = metadata !{i32 458798, i32 0, metadata !428, metadata !"operator+", metadata !"operator+", metadata !"_ZNK9__gnu_cxx17__normal_iteratorIPcSsEplERKl", metadata !429, i32 705, metadata !468, i1 false, i1 false, i32 0, i32 0, null, i1 false} ; [ DW_TAG_subprogram ]
!468 = metadata !{i32 458773, metadata !19, metadata !"", metadata !19, i32 0, i64 0, i64 0, i64 0, i32 0, null, metadata !469, i32 0, null} ; [ DW_TAG_subroutine_type ]
!469 = metadata !{metadata !428, metadata !444, metadata !461}
!470 = metadata !{i32 458798, i32 0, metadata !428, metadata !"operator-=", metadata !"operator-=", metadata !"_ZN9__gnu_cxx17__normal_iteratorIPcSsEmIERKl", metadata !429, i32 709, metadata !465, i1 false, i1 false, i32 0, i32 0, null, i1 false} ; [ DW_TAG_subprogram ]
!471 = metadata !{i32 458798, i32 0, metadata !428, metadata !"operator-", metadata !"operator-", metadata !"_ZNK9__gnu_cxx17__normal_iteratorIPcSsEmiERKl", metadata !429, i32 713, metadata !468, i1 false, i1 false, i32 0, i32 0, null, i1 false} ; [ DW_TAG_subprogram ]
!472 = metadata !{i32 458798, i32 0, metadata !428, metadata !"base", metadata !"base", metadata !"_ZNK9__gnu_cxx17__normal_iteratorIPcSsE4baseEv", metadata !429, i32 717, metadata !473, i1 false, i1 false, i32 0, i32 0, null, i1 false} ; [ DW_TAG_subprogram ]
!473 = metadata !{i32 458773, metadata !19, metadata !"", metadata !19, i32 0, i64 0, i64 0, i64 0, i32 0, null, metadata !474, i32 0, null} ; [ DW_TAG_subroutine_type ]
!474 = metadata !{metadata !439, metadata !444}
!475 = metadata !{i32 458798, i32 0, metadata !299, metadata !"_M_iend", metadata !"_M_iend", metadata !"_ZNKSs7_M_iendEv", metadata !302, i32 297, metadata !426, i1 false, i1 false, i32 0, i32 0, null, i1 false} ; [ DW_TAG_subprogram ]
!476 = metadata !{i32 458798, i32 0, metadata !299, metadata !"_M_leak", metadata !"_M_leak", metadata !"_ZNSs7_M_leakEv", metadata !302, i32 301, metadata !477, i1 false, i1 false, i32 0, i32 0, null, i1 false} ; [ DW_TAG_subprogram ]
!477 = metadata !{i32 458773, metadata !19, metadata !"", metadata !19, i32 0, i64 0, i64 0, i64 0, i32 0, null, metadata !478, i32 0, null} ; [ DW_TAG_subroutine_type ]
!478 = metadata !{null, metadata !376}
!479 = metadata !{i32 458798, i32 0, metadata !299, metadata !"_M_check", metadata !"_M_check", metadata !"_ZNKSs8_M_checkEmPKc", metadata !302, i32 308, metadata !480, i1 false, i1 false, i32 0, i32 0, null, i1 false} ; [ DW_TAG_subprogram ]
!480 = metadata !{i32 458773, metadata !19, metadata !"", metadata !19, i32 0, i64 0, i64 0, i64 0, i32 0, null, metadata !481, i32 0, null} ; [ DW_TAG_subroutine_type ]
!481 = metadata !{metadata !138, metadata !371, metadata !140, metadata !170}
!482 = metadata !{i32 458798, i32 0, metadata !299, metadata !"_M_check_length", metadata !"_M_check_length", metadata !"_ZNKSs15_M_check_lengthEmmPKc", metadata !302, i32 316, metadata !483, i1 false, i1 false, i32 0, i32 0, null, i1 false} ; [ DW_TAG_subprogram ]
!483 = metadata !{i32 458773, metadata !19, metadata !"", metadata !19, i32 0, i64 0, i64 0, i64 0, i32 0, null, metadata !484, i32 0, null} ; [ DW_TAG_subroutine_type ]
!484 = metadata !{null, metadata !371, metadata !140, metadata !140, metadata !170}
!485 = metadata !{i32 458798, i32 0, metadata !299, metadata !"_M_limit", metadata !"_M_limit", metadata !"_ZNKSs8_M_limitEmm", metadata !302, i32 324, metadata !486, i1 false, i1 false, i32 0, i32 0, null, i1 false} ; [ DW_TAG_subprogram ]
!486 = metadata !{i32 458773, metadata !19, metadata !"", metadata !19, i32 0, i64 0, i64 0, i64 0, i32 0, null, metadata !487, i32 0, null} ; [ DW_TAG_subroutine_type ]
!487 = metadata !{metadata !138, metadata !371, metadata !140, metadata !140}
!488 = metadata !{i32 458798, i32 0, metadata !299, metadata !"_M_disjunct", metadata !"_M_disjunct", metadata !"_ZNKSs11_M_disjunctEPKc", metadata !302, i32 332, metadata !489, i1 false, i1 false, i32 0, i32 0, null, i1 false} ; [ DW_TAG_subprogram ]
!489 = metadata !{i32 458773, metadata !19, metadata !"", metadata !19, i32 0, i64 0, i64 0, i64 0, i32 0, null, metadata !490, i32 0, null} ; [ DW_TAG_subroutine_type ]
!490 = metadata !{metadata !233, metadata !371, metadata !170}
!491 = metadata !{i32 458798, i32 0, metadata !299, metadata !"_M_copy", metadata !"_M_copy", metadata !"_ZNSs7_M_copyEPcPKcm", metadata !302, i32 341, metadata !492, i1 false, i1 false, i32 0, i32 0, null, i1 false} ; [ DW_TAG_subprogram ]
!492 = metadata !{i32 458773, metadata !19, metadata !"", metadata !19, i32 0, i64 0, i64 0, i64 0, i32 0, null, metadata !493, i32 0, null} ; [ DW_TAG_subroutine_type ]
!493 = metadata !{null, metadata !206, metadata !170, metadata !140}
!494 = metadata !{i32 458798, i32 0, metadata !299, metadata !"_M_move", metadata !"_M_move", metadata !"_ZNSs7_M_moveEPcPKcm", metadata !302, i32 350, metadata !492, i1 false, i1 false, i32 0, i32 0, null, i1 false} ; [ DW_TAG_subprogram ]
!495 = metadata !{i32 458798, i32 0, metadata !299, metadata !"_M_assign", metadata !"_M_assign", metadata !"_ZNSs9_M_assignEPcmc", metadata !302, i32 359, metadata !496, i1 false, i1 false, i32 0, i32 0, null, i1 false} ; [ DW_TAG_subprogram ]
!496 = metadata !{i32 458773, metadata !19, metadata !"", metadata !19, i32 0, i64 0, i64 0, i64 0, i32 0, null, metadata !497, i32 0, null} ; [ DW_TAG_subroutine_type ]
!497 = metadata !{null, metadata !206, metadata !140, metadata !172}
!498 = metadata !{i32 458798, i32 0, metadata !299, metadata !"_S_copy_chars", metadata !"_S_copy_chars", metadata !"_ZNSs13_S_copy_charsEPcN9__gnu_cxx17__normal_iteratorIS_SsEES2_", metadata !302, i32 378, metadata !499, i1 false, i1 false, i32 0, i32 0, null, i1 false} ; [ DW_TAG_subprogram ]
!499 = metadata !{i32 458773, metadata !19, metadata !"", metadata !19, i32 0, i64 0, i64 0, i64 0, i32 0, null, metadata !500, i32 0, null} ; [ DW_TAG_subroutine_type ]
!500 = metadata !{null, metadata !206, metadata !428, metadata !428}
!501 = metadata !{i32 458798, i32 0, metadata !299, metadata !"_S_copy_chars", metadata !"_S_copy_chars", metadata !"_ZNSs13_S_copy_charsEPcN9__gnu_cxx17__normal_iteratorIPKcSsEES4_", metadata !302, i32 382, metadata !502, i1 false, i1 false, i32 0, i32 0, null, i1 false} ; [ DW_TAG_subprogram ]
!502 = metadata !{i32 458773, metadata !19, metadata !"", metadata !19, i32 0, i64 0, i64 0, i64 0, i32 0, null, metadata !503, i32 0, null} ; [ DW_TAG_subroutine_type ]
!503 = metadata !{null, metadata !206, metadata !504, metadata !504}
!504 = metadata !{i32 458771, metadata !310, metadata !"__gnu_cxx__normal_iterator<const char*,std::basic_string<char, std::char_traits<char>, std::allocator<char> > >", metadata !429, i32 637, i64 0, i64 0, i64 0, i32 4, null, null, i32 0, null} ; [ DW_TAG_structure_type ]
!505 = metadata !{i32 458798, i32 0, metadata !299, metadata !"_S_copy_chars", metadata !"_S_copy_chars", metadata !"_ZNSs13_S_copy_charsEPcS_S_", metadata !302, i32 386, metadata !506, i1 false, i1 false, i32 0, i32 0, null, i1 false} ; [ DW_TAG_subprogram ]
!506 = metadata !{i32 458773, metadata !19, metadata !"", metadata !19, i32 0, i64 0, i64 0, i64 0, i32 0, null, metadata !507, i32 0, null} ; [ DW_TAG_subroutine_type ]
!507 = metadata !{null, metadata !206, metadata !206, metadata !206}
!508 = metadata !{i32 458798, i32 0, metadata !299, metadata !"_S_copy_chars", metadata !"_S_copy_chars", metadata !"_ZNSs13_S_copy_charsEPcPKcS1_", metadata !302, i32 390, metadata !509, i1 false, i1 false, i32 0, i32 0, null, i1 false} ; [ DW_TAG_subprogram ]
!509 = metadata !{i32 458773, metadata !19, metadata !"", metadata !19, i32 0, i64 0, i64 0, i64 0, i32 0, null, metadata !510, i32 0, null} ; [ DW_TAG_subroutine_type ]
!510 = metadata !{null, metadata !206, metadata !170, metadata !170}
!511 = metadata !{i32 458798, i32 0, metadata !299, metadata !"_M_mutate", metadata !"_M_mutate", metadata !"_ZNSs9_M_mutateEmmm", metadata !414, i32 451, metadata !512, i1 false, i1 false, i32 0, i32 0, null, i1 false} ; [ DW_TAG_subprogram ]
!512 = metadata !{i32 458773, metadata !19, metadata !"", metadata !19, i32 0, i64 0, i64 0, i64 0, i32 0, null, metadata !513, i32 0, null} ; [ DW_TAG_subroutine_type ]
!513 = metadata !{null, metadata !376, metadata !140, metadata !140, metadata !140}
!514 = metadata !{i32 458798, i32 0, metadata !299, metadata !"_M_leak_hard", metadata !"_M_leak_hard", metadata !"_ZNSs12_M_leak_hardEv", metadata !414, i32 437, metadata !477, i1 false, i1 false, i32 0, i32 0, null, i1 false} ; [ DW_TAG_subprogram ]
!515 = metadata !{i32 458798, i32 0, metadata !299, metadata !"_S_empty_rep", metadata !"_S_empty_rep", metadata !"_ZNSs12_S_empty_repEv", metadata !302, i32 400, metadata !390, i1 false, i1 false, i32 0, i32 0, null, i1 false} ; [ DW_TAG_subprogram ]
!516 = metadata !{i32 458798, i32 0, metadata !299, metadata !"basic_string", metadata !"basic_string", metadata !"", metadata !302, i32 2055, metadata !477, i1 false, i1 false, i32 0, i32 0, null, i1 false} ; [ DW_TAG_subprogram ]
!517 = metadata !{i32 458798, i32 0, metadata !299, metadata !"basic_string", metadata !"basic_string", metadata !"", metadata !414, i32 191, metadata !518, i1 false, i1 false, i32 0, i32 0, null, i1 false} ; [ DW_TAG_subprogram ]
!518 = metadata !{i32 458773, metadata !19, metadata !"", metadata !19, i32 0, i64 0, i64 0, i64 0, i32 0, null, metadata !519, i32 0, null} ; [ DW_TAG_subroutine_type ]
!519 = metadata !{null, metadata !376, metadata !358}
!520 = metadata !{i32 458798, i32 0, metadata !299, metadata !"basic_string", metadata !"basic_string", metadata !"", metadata !414, i32 183, metadata !521, i1 false, i1 false, i32 0, i32 0, null, i1 false} ; [ DW_TAG_subprogram ]
!521 = metadata !{i32 458773, metadata !19, metadata !"", metadata !19, i32 0, i64 0, i64 0, i64 0, i32 0, null, metadata !522, i32 0, null} ; [ DW_TAG_subroutine_type ]
!522 = metadata !{null, metadata !376, metadata !523}
!523 = metadata !{i32 458768, metadata !19, metadata !"", metadata !19, i32 0, i64 64, i64 64, i64 0, i32 0, metadata !372} ; [ DW_TAG_reference_type ]
!524 = metadata !{i32 458798, i32 0, metadata !299, metadata !"basic_string", metadata !"basic_string", metadata !"", metadata !414, i32 197, metadata !525, i1 false, i1 false, i32 0, i32 0, null, i1 false} ; [ DW_TAG_subprogram ]
!525 = metadata !{i32 458773, metadata !19, metadata !"", metadata !19, i32 0, i64 0, i64 0, i64 0, i32 0, null, metadata !526, i32 0, null} ; [ DW_TAG_subroutine_type ]
!526 = metadata !{null, metadata !376, metadata !523, metadata !140, metadata !140}
!527 = metadata !{i32 458798, i32 0, metadata !299, metadata !"basic_string", metadata !"basic_string", metadata !"", metadata !414, i32 208, metadata !528, i1 false, i1 false, i32 0, i32 0, null, i1 false} ; [ DW_TAG_subprogram ]
!528 = metadata !{i32 458773, metadata !19, metadata !"", metadata !19, i32 0, i64 0, i64 0, i64 0, i32 0, null, metadata !529, i32 0, null} ; [ DW_TAG_subroutine_type ]
!529 = metadata !{null, metadata !376, metadata !523, metadata !140, metadata !140, metadata !358}
!530 = metadata !{i32 458798, i32 0, metadata !299, metadata !"basic_string", metadata !"basic_string", metadata !"", metadata !414, i32 219, metadata !531, i1 false, i1 false, i32 0, i32 0, null, i1 false} ; [ DW_TAG_subprogram ]
!531 = metadata !{i32 458773, metadata !19, metadata !"", metadata !19, i32 0, i64 0, i64 0, i64 0, i32 0, null, metadata !532, i32 0, null} ; [ DW_TAG_subroutine_type ]
!532 = metadata !{null, metadata !376, metadata !170, metadata !140, metadata !358}
!533 = metadata !{i32 458798, i32 0, metadata !299, metadata !"basic_string", metadata !"basic_string", metadata !"", metadata !414, i32 226, metadata !534, i1 false, i1 false, i32 0, i32 0, null, i1 false} ; [ DW_TAG_subprogram ]
!534 = metadata !{i32 458773, metadata !19, metadata !"", metadata !19, i32 0, i64 0, i64 0, i64 0, i32 0, null, metadata !535, i32 0, null} ; [ DW_TAG_subroutine_type ]
!535 = metadata !{null, metadata !376, metadata !170, metadata !358}
!536 = metadata !{i32 458798, i32 0, metadata !299, metadata !"basic_string", metadata !"basic_string", metadata !"", metadata !414, i32 233, metadata !537, i1 false, i1 false, i32 0, i32 0, null, i1 false} ; [ DW_TAG_subprogram ]
!537 = metadata !{i32 458773, metadata !19, metadata !"", metadata !19, i32 0, i64 0, i64 0, i64 0, i32 0, null, metadata !538, i32 0, null} ; [ DW_TAG_subroutine_type ]
!538 = metadata !{null, metadata !376, metadata !140, metadata !172, metadata !358}
!539 = metadata !{i32 458798, i32 0, metadata !299, metadata !"~basic_string", metadata !"~basic_string", metadata !"", metadata !302, i32 482, metadata !540, i1 false, i1 false, i32 0, i32 0, null, i1 false} ; [ DW_TAG_subprogram ]
!540 = metadata !{i32 458773, metadata !19, metadata !"", metadata !19, i32 0, i64 0, i64 0, i64 0, i32 0, null, metadata !541, i32 0, null} ; [ DW_TAG_subroutine_type ]
!541 = metadata !{null, metadata !376, metadata !31}
!542 = metadata !{i32 458798, i32 0, metadata !299, metadata !"operator=", metadata !"operator=", metadata !"_ZNSsaSERKSs", metadata !302, i32 490, metadata !543, i1 false, i1 false, i32 0, i32 0, null, i1 false} ; [ DW_TAG_subprogram ]
!543 = metadata !{i32 458773, metadata !19, metadata !"", metadata !19, i32 0, i64 0, i64 0, i64 0, i32 0, null, metadata !544, i32 0, null} ; [ DW_TAG_subroutine_type ]
!544 = metadata !{metadata !545, metadata !376, metadata !523}
!545 = metadata !{i32 458768, metadata !19, metadata !"stdbasic_string<char,std::char_traits<char>,std::allocator<char> >", metadata !19, i32 0, i64 64, i64 64, i64 0, i32 0, metadata !299} ; [ DW_TAG_reference_type ]
!546 = metadata !{i32 458798, i32 0, metadata !299, metadata !"operator=", metadata !"operator=", metadata !"_ZNSsaSEPKc", metadata !302, i32 498, metadata !547, i1 false, i1 false, i32 0, i32 0, null, i1 false} ; [ DW_TAG_subprogram ]
!547 = metadata !{i32 458773, metadata !19, metadata !"", metadata !19, i32 0, i64 0, i64 0, i64 0, i32 0, null, metadata !548, i32 0, null} ; [ DW_TAG_subroutine_type ]
!548 = metadata !{metadata !545, metadata !376, metadata !170}
!549 = metadata !{i32 458798, i32 0, metadata !299, metadata !"operator=", metadata !"operator=", metadata !"_ZNSsaSEc", metadata !302, i32 509, metadata !550, i1 false, i1 false, i32 0, i32 0, null, i1 false} ; [ DW_TAG_subprogram ]
!550 = metadata !{i32 458773, metadata !19, metadata !"", metadata !19, i32 0, i64 0, i64 0, i64 0, i32 0, null, metadata !551, i32 0, null} ; [ DW_TAG_subroutine_type ]
!551 = metadata !{metadata !545, metadata !376, metadata !172}
!552 = metadata !{i32 458798, i32 0, metadata !299, metadata !"begin", metadata !"begin", metadata !"_ZNSs5beginEv", metadata !302, i32 521, metadata !553, i1 false, i1 false, i32 0, i32 0, null, i1 false} ; [ DW_TAG_subprogram ]
!553 = metadata !{i32 458773, metadata !19, metadata !"", metadata !19, i32 0, i64 0, i64 0, i64 0, i32 0, null, metadata !554, i32 0, null} ; [ DW_TAG_subroutine_type ]
!554 = metadata !{metadata !428, metadata !376}
!555 = metadata !{i32 458798, i32 0, metadata !299, metadata !"begin", metadata !"begin", metadata !"_ZNKSs5beginEv", metadata !302, i32 532, metadata !556, i1 false, i1 false, i32 0, i32 0, null, i1 false} ; [ DW_TAG_subprogram ]
!556 = metadata !{i32 458773, metadata !19, metadata !"", metadata !19, i32 0, i64 0, i64 0, i64 0, i32 0, null, metadata !557, i32 0, null} ; [ DW_TAG_subroutine_type ]
!557 = metadata !{metadata !504, metadata !371}
!558 = metadata !{i32 458798, i32 0, metadata !299, metadata !"end", metadata !"end", metadata !"_ZNSs3endEv", metadata !302, i32 540, metadata !553, i1 false, i1 false, i32 0, i32 0, null, i1 false} ; [ DW_TAG_subprogram ]
!559 = metadata !{i32 458798, i32 0, metadata !299, metadata !"end", metadata !"end", metadata !"_ZNKSs3endEv", metadata !302, i32 551, metadata !556, i1 false, i1 false, i32 0, i32 0, null, i1 false} ; [ DW_TAG_subprogram ]
!560 = metadata !{i32 458798, i32 0, metadata !299, metadata !"rbegin", metadata !"rbegin", metadata !"_ZNSs6rbeginEv", metadata !302, i32 560, metadata !561, i1 false, i1 false, i32 0, i32 0, null, i1 false} ; [ DW_TAG_subprogram ]
!561 = metadata !{i32 458773, metadata !19, metadata !"", metadata !19, i32 0, i64 0, i64 0, i64 0, i32 0, null, metadata !562, i32 0, null} ; [ DW_TAG_subroutine_type ]
!562 = metadata !{metadata !563, metadata !376}
!563 = metadata !{i32 458771, metadata !18, metadata !"stdreverse_iterator<__gnu_cxx::__normal_iterator<char*, std::basic_string<char, std::char_traits<char>, std::allocator<char> > > >", metadata !429, i32 100, i64 0, i64 0, i64 0, i32 4, null, null, i32 0, null} ; [ DW_TAG_structure_type ]
!564 = metadata !{i32 458798, i32 0, metadata !299, metadata !"rbegin", metadata !"rbegin", metadata !"_ZNKSs6rbeginEv", metadata !302, i32 569, metadata !565, i1 false, i1 false, i32 0, i32 0, null, i1 false} ; [ DW_TAG_subprogram ]
!565 = metadata !{i32 458773, metadata !19, metadata !"", metadata !19, i32 0, i64 0, i64 0, i64 0, i32 0, null, metadata !566, i32 0, null} ; [ DW_TAG_subroutine_type ]
!566 = metadata !{metadata !567, metadata !371}
!567 = metadata !{i32 458771, metadata !18, metadata !"stdreverse_iterator<__gnu_cxx::__normal_iterator<const char*, std::basic_string<char, std::char_traits<char>, std::allocator<char> > > >", metadata !429, i32 100, i64 0, i64 0, i64 0, i32 4, null, null, i32 0, null} ; [ DW_TAG_structure_type ]
!568 = metadata !{i32 458798, i32 0, metadata !299, metadata !"rend", metadata !"rend", metadata !"_ZNSs4rendEv", metadata !302, i32 578, metadata !561, i1 false, i1 false, i32 0, i32 0, null, i1 false} ; [ DW_TAG_subprogram ]
!569 = metadata !{i32 458798, i32 0, metadata !299, metadata !"rend", metadata !"rend", metadata !"_ZNKSs4rendEv", metadata !302, i32 587, metadata !565, i1 false, i1 false, i32 0, i32 0, null, i1 false} ; [ DW_TAG_subprogram ]
!570 = metadata !{i32 458798, i32 0, metadata !299, metadata !"size", metadata !"size", metadata !"_ZNKSs4sizeEv", metadata !302, i32 595, metadata !571, i1 false, i1 false, i32 0, i32 0, null, i1 false} ; [ DW_TAG_subprogram ]
!571 = metadata !{i32 458773, metadata !19, metadata !"", metadata !19, i32 0, i64 0, i64 0, i64 0, i32 0, null, metadata !572, i32 0, null} ; [ DW_TAG_subroutine_type ]
!572 = metadata !{metadata !138, metadata !371}
!573 = metadata !{i32 458798, i32 0, metadata !299, metadata !"length", metadata !"length", metadata !"_ZNKSs6lengthEv", metadata !302, i32 601, metadata !571, i1 false, i1 false, i32 0, i32 0, null, i1 false} ; [ DW_TAG_subprogram ]
!574 = metadata !{i32 458798, i32 0, metadata !299, metadata !"max_size", metadata !"max_size", metadata !"_ZNKSs8max_sizeEv", metadata !302, i32 606, metadata !571, i1 false, i1 false, i32 0, i32 0, null, i1 false} ; [ DW_TAG_subprogram ]
!575 = metadata !{i32 458798, i32 0, metadata !299, metadata !"resize", metadata !"resize", metadata !"_ZNSs6resizeEmc", metadata !414, i32 622, metadata !576, i1 false, i1 false, i32 0, i32 0, null, i1 false} ; [ DW_TAG_subprogram ]
!576 = metadata !{i32 458773, metadata !19, metadata !"", metadata !19, i32 0, i64 0, i64 0, i64 0, i32 0, null, metadata !577, i32 0, null} ; [ DW_TAG_subroutine_type ]
!577 = metadata !{null, metadata !376, metadata !140, metadata !172}
!578 = metadata !{i32 458798, i32 0, metadata !299, metadata !"resize", metadata !"resize", metadata !"_ZNSs6resizeEm", metadata !302, i32 633, metadata !579, i1 false, i1 false, i32 0, i32 0, null, i1 false} ; [ DW_TAG_subprogram ]
!579 = metadata !{i32 458773, metadata !19, metadata !"", metadata !19, i32 0, i64 0, i64 0, i64 0, i32 0, null, metadata !580, i32 0, null} ; [ DW_TAG_subroutine_type ]
!580 = metadata !{null, metadata !376, metadata !140}
!581 = metadata !{i32 458798, i32 0, metadata !299, metadata !"capacity", metadata !"capacity", metadata !"_ZNKSs8capacityEv", metadata !302, i32 641, metadata !571, i1 false, i1 false, i32 0, i32 0, null, i1 false} ; [ DW_TAG_subprogram ]
!582 = metadata !{i32 458798, i32 0, metadata !299, metadata !"reserve", metadata !"reserve", metadata !"_ZNSs7reserveEm", metadata !414, i32 484, metadata !579, i1 false, i1 false, i32 0, i32 0, null, i1 false} ; [ DW_TAG_subprogram ]
!583 = metadata !{i32 458798, i32 0, metadata !299, metadata !"clear", metadata !"clear", metadata !"_ZNSs5clearEv", metadata !302, i32 668, metadata !477, i1 false, i1 false, i32 0, i32 0, null, i1 false} ; [ DW_TAG_subprogram ]
!584 = metadata !{i32 458798, i32 0, metadata !299, metadata !"empty", metadata !"empty", metadata !"_ZNKSs5emptyEv", metadata !302, i32 675, metadata !585, i1 false, i1 false, i32 0, i32 0, null, i1 false} ; [ DW_TAG_subprogram ]
!585 = metadata !{i32 458773, metadata !19, metadata !"", metadata !19, i32 0, i64 0, i64 0, i64 0, i32 0, null, metadata !586, i32 0, null} ; [ DW_TAG_subroutine_type ]
!586 = metadata !{metadata !233, metadata !371}
!587 = metadata !{i32 458798, i32 0, metadata !299, metadata !"operator[]", metadata !"operator[]", metadata !"_ZNKSsixEm", metadata !302, i32 690, metadata !588, i1 false, i1 false, i32 0, i32 0, null, i1 false} ; [ DW_TAG_subprogram ]
!588 = metadata !{i32 458773, metadata !19, metadata !"", metadata !19, i32 0, i64 0, i64 0, i64 0, i32 0, null, metadata !589, i32 0, null} ; [ DW_TAG_subroutine_type ]
!589 = metadata !{metadata !334, metadata !371, metadata !140}
!590 = metadata !{i32 458798, i32 0, metadata !299, metadata !"operator[]", metadata !"operator[]", metadata !"_ZNSsixEm", metadata !302, i32 707, metadata !591, i1 false, i1 false, i32 0, i32 0, null, i1 false} ; [ DW_TAG_subprogram ]
!591 = metadata !{i32 458773, metadata !19, metadata !"", metadata !19, i32 0, i64 0, i64 0, i64 0, i32 0, null, metadata !592, i32 0, null} ; [ DW_TAG_subroutine_type ]
!592 = metadata !{metadata !330, metadata !376, metadata !140}
!593 = metadata !{i32 458798, i32 0, metadata !299, metadata !"at", metadata !"at", metadata !"_ZNKSs2atEm", metadata !302, i32 728, metadata !588, i1 false, i1 false, i32 0, i32 0, null, i1 false} ; [ DW_TAG_subprogram ]
!594 = metadata !{i32 458798, i32 0, metadata !299, metadata !"at", metadata !"at", metadata !"_ZNSs2atEm", metadata !302, i32 747, metadata !591, i1 false, i1 false, i32 0, i32 0, null, i1 false} ; [ DW_TAG_subprogram ]
!595 = metadata !{i32 458798, i32 0, metadata !299, metadata !"operator+=", metadata !"operator+=", metadata !"_ZNSspLERKSs", metadata !302, i32 762, metadata !543, i1 false, i1 false, i32 0, i32 0, null, i1 false} ; [ DW_TAG_subprogram ]
!596 = metadata !{i32 458798, i32 0, metadata !299, metadata !"operator+=", metadata !"operator+=", metadata !"_ZNSspLEPKc", metadata !302, i32 771, metadata !547, i1 false, i1 false, i32 0, i32 0, null, i1 false} ; [ DW_TAG_subprogram ]
!597 = metadata !{i32 458798, i32 0, metadata !299, metadata !"operator+=", metadata !"operator+=", metadata !"_ZNSspLEc", metadata !302, i32 780, metadata !550, i1 false, i1 false, i32 0, i32 0, null, i1 false} ; [ DW_TAG_subprogram ]
!598 = metadata !{i32 458798, i32 0, metadata !299, metadata !"append", metadata !"append", metadata !"_ZNSs6appendERKSs", metadata !414, i32 330, metadata !543, i1 false, i1 false, i32 0, i32 0, null, i1 false} ; [ DW_TAG_subprogram ]
!599 = metadata !{i32 458798, i32 0, metadata !299, metadata !"append", metadata !"append", metadata !"_ZNSs6appendERKSsmm", metadata !414, i32 347, metadata !600, i1 false, i1 false, i32 0, i32 0, null, i1 false} ; [ DW_TAG_subprogram ]
!600 = metadata !{i32 458773, metadata !19, metadata !"", metadata !19, i32 0, i64 0, i64 0, i64 0, i32 0, null, metadata !601, i32 0, null} ; [ DW_TAG_subroutine_type ]
!601 = metadata !{metadata !545, metadata !376, metadata !523, metadata !140, metadata !140}
!602 = metadata !{i32 458798, i32 0, metadata !299, metadata !"append", metadata !"append", metadata !"_ZNSs6appendEPKcm", metadata !414, i32 303, metadata !603, i1 false, i1 false, i32 0, i32 0, null, i1 false} ; [ DW_TAG_subprogram ]
!603 = metadata !{i32 458773, metadata !19, metadata !"", metadata !19, i32 0, i64 0, i64 0, i64 0, i32 0, null, metadata !604, i32 0, null} ; [ DW_TAG_subroutine_type ]
!604 = metadata !{metadata !545, metadata !376, metadata !170, metadata !140}
!605 = metadata !{i32 458798, i32 0, metadata !299, metadata !"append", metadata !"append", metadata !"_ZNSs6appendEPKc", metadata !302, i32 824, metadata !547, i1 false, i1 false, i32 0, i32 0, null, i1 false} ; [ DW_TAG_subprogram ]
!606 = metadata !{i32 458798, i32 0, metadata !299, metadata !"append", metadata !"append", metadata !"_ZNSs6appendEmc", metadata !414, i32 286, metadata !607, i1 false, i1 false, i32 0, i32 0, null, i1 false} ; [ DW_TAG_subprogram ]
!607 = metadata !{i32 458773, metadata !19, metadata !"", metadata !19, i32 0, i64 0, i64 0, i64 0, i32 0, null, metadata !608, i32 0, null} ; [ DW_TAG_subroutine_type ]
!608 = metadata !{metadata !545, metadata !376, metadata !140, metadata !172}
!609 = metadata !{i32 458798, i32 0, metadata !299, metadata !"push_back", metadata !"push_back", metadata !"_ZNSs9push_backEc", metadata !302, i32 859, metadata !610, i1 false, i1 false, i32 0, i32 0, null, i1 false} ; [ DW_TAG_subprogram ]
!610 = metadata !{i32 458773, metadata !19, metadata !"", metadata !19, i32 0, i64 0, i64 0, i64 0, i32 0, null, metadata !611, i32 0, null} ; [ DW_TAG_subroutine_type ]
!611 = metadata !{null, metadata !376, metadata !172}
!612 = metadata !{i32 458798, i32 0, metadata !299, metadata !"assign", metadata !"assign", metadata !"_ZNSs6assignERKSs", metadata !414, i32 248, metadata !543, i1 false, i1 false, i32 0, i32 0, null, i1 false} ; [ DW_TAG_subprogram ]
!613 = metadata !{i32 458798, i32 0, metadata !299, metadata !"assign", metadata !"assign", metadata !"_ZNSs6assignERKSsmm", metadata !302, i32 889, metadata !600, i1 false, i1 false, i32 0, i32 0, null, i1 false} ; [ DW_TAG_subprogram ]
!614 = metadata !{i32 458798, i32 0, metadata !299, metadata !"assign", metadata !"assign", metadata !"_ZNSs6assignEPKcm", metadata !414, i32 264, metadata !603, i1 false, i1 false, i32 0, i32 0, null, i1 false} ; [ DW_TAG_subprogram ]
!615 = metadata !{i32 458798, i32 0, metadata !299, metadata !"assign", metadata !"assign", metadata !"_ZNSs6assignEPKc", metadata !302, i32 917, metadata !547, i1 false, i1 false, i32 0, i32 0, null, i1 false} ; [ DW_TAG_subprogram ]
!616 = metadata !{i32 458798, i32 0, metadata !299, metadata !"assign", metadata !"assign", metadata !"_ZNSs6assignEmc", metadata !302, i32 933, metadata !607, i1 false, i1 false, i32 0, i32 0, null, i1 false} ; [ DW_TAG_subprogram ]
!617 = metadata !{i32 458798, i32 0, metadata !299, metadata !"insert", metadata !"insert", metadata !"_ZNSs6insertEN9__gnu_cxx17__normal_iteratorIPcSsEEmc", metadata !302, i32 962, metadata !618, i1 false, i1 false, i32 0, i32 0, null, i1 false} ; [ DW_TAG_subprogram ]
!618 = metadata !{i32 458773, metadata !19, metadata !"", metadata !19, i32 0, i64 0, i64 0, i64 0, i32 0, null, metadata !619, i32 0, null} ; [ DW_TAG_subroutine_type ]
!619 = metadata !{null, metadata !376, metadata !428, metadata !140, metadata !172}
!620 = metadata !{i32 458798, i32 0, metadata !299, metadata !"insert", metadata !"insert", metadata !"_ZNSs6insertEmRKSs", metadata !302, i32 993, metadata !621, i1 false, i1 false, i32 0, i32 0, null, i1 false} ; [ DW_TAG_subprogram ]
!621 = metadata !{i32 458773, metadata !19, metadata !"", metadata !19, i32 0, i64 0, i64 0, i64 0, i32 0, null, metadata !622, i32 0, null} ; [ DW_TAG_subroutine_type ]
!622 = metadata !{metadata !545, metadata !376, metadata !140, metadata !523}
!623 = metadata !{i32 458798, i32 0, metadata !299, metadata !"insert", metadata !"insert", metadata !"_ZNSs6insertEmRKSsmm", metadata !302, i32 1016, metadata !624, i1 false, i1 false, i32 0, i32 0, null, i1 false} ; [ DW_TAG_subprogram ]
!624 = metadata !{i32 458773, metadata !19, metadata !"", metadata !19, i32 0, i64 0, i64 0, i64 0, i32 0, null, metadata !625, i32 0, null} ; [ DW_TAG_subroutine_type ]
!625 = metadata !{metadata !545, metadata !376, metadata !140, metadata !523, metadata !140, metadata !140}
!626 = metadata !{i32 458798, i32 0, metadata !299, metadata !"insert", metadata !"insert", metadata !"_ZNSs6insertEmPKcm", metadata !414, i32 365, metadata !627, i1 false, i1 false, i32 0, i32 0, null, i1 false} ; [ DW_TAG_subprogram ]
!627 = metadata !{i32 458773, metadata !19, metadata !"", metadata !19, i32 0, i64 0, i64 0, i64 0, i32 0, null, metadata !628, i32 0, null} ; [ DW_TAG_subroutine_type ]
!628 = metadata !{metadata !545, metadata !376, metadata !140, metadata !170, metadata !140}
!629 = metadata !{i32 458798, i32 0, metadata !299, metadata !"insert", metadata !"insert", metadata !"_ZNSs6insertEmPKc", metadata !302, i32 1056, metadata !630, i1 false, i1 false, i32 0, i32 0, null, i1 false} ; [ DW_TAG_subprogram ]
!630 = metadata !{i32 458773, metadata !19, metadata !"", metadata !19, i32 0, i64 0, i64 0, i64 0, i32 0, null, metadata !631, i32 0, null} ; [ DW_TAG_subroutine_type ]
!631 = metadata !{metadata !545, metadata !376, metadata !140, metadata !170}
!632 = metadata !{i32 458798, i32 0, metadata !299, metadata !"insert", metadata !"insert", metadata !"_ZNSs6insertEmmc", metadata !302, i32 1079, metadata !633, i1 false, i1 false, i32 0, i32 0, null, i1 false} ; [ DW_TAG_subprogram ]
!633 = metadata !{i32 458773, metadata !19, metadata !"", metadata !19, i32 0, i64 0, i64 0, i64 0, i32 0, null, metadata !634, i32 0, null} ; [ DW_TAG_subroutine_type ]
!634 = metadata !{metadata !545, metadata !376, metadata !140, metadata !140, metadata !172}
!635 = metadata !{i32 458798, i32 0, metadata !299, metadata !"insert", metadata !"insert", metadata !"_ZNSs6insertEN9__gnu_cxx17__normal_iteratorIPcSsEEc", metadata !302, i32 1096, metadata !636, i1 false, i1 false, i32 0, i32 0, null, i1 false} ; [ DW_TAG_subprogram ]
!636 = metadata !{i32 458773, metadata !19, metadata !"", metadata !19, i32 0, i64 0, i64 0, i64 0, i32 0, null, metadata !637, i32 0, null} ; [ DW_TAG_subroutine_type ]
!637 = metadata !{metadata !428, metadata !376, metadata !428, metadata !172}
!638 = metadata !{i32 458798, i32 0, metadata !299, metadata !"erase", metadata !"erase", metadata !"_ZNSs5eraseEmm", metadata !302, i32 1120, metadata !639, i1 false, i1 false, i32 0, i32 0, null, i1 false} ; [ DW_TAG_subprogram ]
!639 = metadata !{i32 458773, metadata !19, metadata !"", metadata !19, i32 0, i64 0, i64 0, i64 0, i32 0, null, metadata !640, i32 0, null} ; [ DW_TAG_subroutine_type ]
!640 = metadata !{metadata !545, metadata !376, metadata !140, metadata !140}
!641 = metadata !{i32 458798, i32 0, metadata !299, metadata !"erase", metadata !"erase", metadata !"_ZNSs5eraseEN9__gnu_cxx17__normal_iteratorIPcSsEE", metadata !302, i32 1136, metadata !642, i1 false, i1 false, i32 0, i32 0, null, i1 false} ; [ DW_TAG_subprogram ]
!642 = metadata !{i32 458773, metadata !19, metadata !"", metadata !19, i32 0, i64 0, i64 0, i64 0, i32 0, null, metadata !643, i32 0, null} ; [ DW_TAG_subroutine_type ]
!643 = metadata !{metadata !428, metadata !376, metadata !428}
!644 = metadata !{i32 458798, i32 0, metadata !299, metadata !"erase", metadata !"erase", metadata !"_ZNSs5eraseEN9__gnu_cxx17__normal_iteratorIPcSsEES2_", metadata !302, i32 1156, metadata !645, i1 false, i1 false, i32 0, i32 0, null, i1 false} ; [ DW_TAG_subprogram ]
!645 = metadata !{i32 458773, metadata !19, metadata !"", metadata !19, i32 0, i64 0, i64 0, i64 0, i32 0, null, metadata !646, i32 0, null} ; [ DW_TAG_subroutine_type ]
!646 = metadata !{metadata !428, metadata !376, metadata !428, metadata !428}
!647 = metadata !{i32 458798, i32 0, metadata !299, metadata !"replace", metadata !"replace", metadata !"_ZNSs7replaceEmmRKSs", metadata !302, i32 1183, metadata !648, i1 false, i1 false, i32 0, i32 0, null, i1 false} ; [ DW_TAG_subprogram ]
!648 = metadata !{i32 458773, metadata !19, metadata !"", metadata !19, i32 0, i64 0, i64 0, i64 0, i32 0, null, metadata !649, i32 0, null} ; [ DW_TAG_subroutine_type ]
!649 = metadata !{metadata !545, metadata !376, metadata !140, metadata !140, metadata !523}
!650 = metadata !{i32 458798, i32 0, metadata !299, metadata !"replace", metadata !"replace", metadata !"_ZNSs7replaceEmmRKSsmm", metadata !302, i32 1206, metadata !651, i1 false, i1 false, i32 0, i32 0, null, i1 false} ; [ DW_TAG_subprogram ]
!651 = metadata !{i32 458773, metadata !19, metadata !"", metadata !19, i32 0, i64 0, i64 0, i64 0, i32 0, null, metadata !652, i32 0, null} ; [ DW_TAG_subroutine_type ]
!652 = metadata !{metadata !545, metadata !376, metadata !140, metadata !140, metadata !523, metadata !140, metadata !140}
!653 = metadata !{i32 458798, i32 0, metadata !299, metadata !"replace", metadata !"replace", metadata !"_ZNSs7replaceEmmPKcm", metadata !414, i32 397, metadata !654, i1 false, i1 false, i32 0, i32 0, null, i1 false} ; [ DW_TAG_subprogram ]
!654 = metadata !{i32 458773, metadata !19, metadata !"", metadata !19, i32 0, i64 0, i64 0, i64 0, i32 0, null, metadata !655, i32 0, null} ; [ DW_TAG_subroutine_type ]
!655 = metadata !{metadata !545, metadata !376, metadata !140, metadata !140, metadata !170, metadata !140}
!656 = metadata !{i32 458798, i32 0, metadata !299, metadata !"replace", metadata !"replace", metadata !"_ZNSs7replaceEmmPKc", metadata !302, i32 1248, metadata !657, i1 false, i1 false, i32 0, i32 0, null, i1 false} ; [ DW_TAG_subprogram ]
!657 = metadata !{i32 458773, metadata !19, metadata !"", metadata !19, i32 0, i64 0, i64 0, i64 0, i32 0, null, metadata !658, i32 0, null} ; [ DW_TAG_subroutine_type ]
!658 = metadata !{metadata !545, metadata !376, metadata !140, metadata !140, metadata !170}
!659 = metadata !{i32 458798, i32 0, metadata !299, metadata !"replace", metadata !"replace", metadata !"_ZNSs7replaceEmmmc", metadata !302, i32 1271, metadata !660, i1 false, i1 false, i32 0, i32 0, null, i1 false} ; [ DW_TAG_subprogram ]
!660 = metadata !{i32 458773, metadata !19, metadata !"", metadata !19, i32 0, i64 0, i64 0, i64 0, i32 0, null, metadata !661, i32 0, null} ; [ DW_TAG_subroutine_type ]
!661 = metadata !{metadata !545, metadata !376, metadata !140, metadata !140, metadata !140, metadata !172}
!662 = metadata !{i32 458798, i32 0, metadata !299, metadata !"replace", metadata !"replace", metadata !"_ZNSs7replaceEN9__gnu_cxx17__normal_iteratorIPcSsEES2_RKSs", metadata !302, i32 1289, metadata !663, i1 false, i1 false, i32 0, i32 0, null, i1 false} ; [ DW_TAG_subprogram ]
!663 = metadata !{i32 458773, metadata !19, metadata !"", metadata !19, i32 0, i64 0, i64 0, i64 0, i32 0, null, metadata !664, i32 0, null} ; [ DW_TAG_subroutine_type ]
!664 = metadata !{metadata !545, metadata !376, metadata !428, metadata !428, metadata !523}
!665 = metadata !{i32 458798, i32 0, metadata !299, metadata !"replace", metadata !"replace", metadata !"_ZNSs7replaceEN9__gnu_cxx17__normal_iteratorIPcSsEES2_PKcm", metadata !302, i32 1307, metadata !666, i1 false, i1 false, i32 0, i32 0, null, i1 false} ; [ DW_TAG_subprogram ]
!666 = metadata !{i32 458773, metadata !19, metadata !"", metadata !19, i32 0, i64 0, i64 0, i64 0, i32 0, null, metadata !667, i32 0, null} ; [ DW_TAG_subroutine_type ]
!667 = metadata !{metadata !545, metadata !376, metadata !428, metadata !428, metadata !170, metadata !140}
!668 = metadata !{i32 458798, i32 0, metadata !299, metadata !"replace", metadata !"replace", metadata !"_ZNSs7replaceEN9__gnu_cxx17__normal_iteratorIPcSsEES2_PKc", metadata !302, i32 1328, metadata !669, i1 false, i1 false, i32 0, i32 0, null, i1 false} ; [ DW_TAG_subprogram ]
!669 = metadata !{i32 458773, metadata !19, metadata !"", metadata !19, i32 0, i64 0, i64 0, i64 0, i32 0, null, metadata !670, i32 0, null} ; [ DW_TAG_subroutine_type ]
!670 = metadata !{metadata !545, metadata !376, metadata !428, metadata !428, metadata !170}
!671 = metadata !{i32 458798, i32 0, metadata !299, metadata !"replace", metadata !"replace", metadata !"_ZNSs7replaceEN9__gnu_cxx17__normal_iteratorIPcSsEES2_mc", metadata !302, i32 1349, metadata !672, i1 false, i1 false, i32 0, i32 0, null, i1 false} ; [ DW_TAG_subprogram ]
!672 = metadata !{i32 458773, metadata !19, metadata !"", metadata !19, i32 0, i64 0, i64 0, i64 0, i32 0, null, metadata !673, i32 0, null} ; [ DW_TAG_subroutine_type ]
!673 = metadata !{metadata !545, metadata !376, metadata !428, metadata !428, metadata !140, metadata !172}
!674 = metadata !{i32 458798, i32 0, metadata !299, metadata !"replace", metadata !"replace", metadata !"_ZNSs7replaceEN9__gnu_cxx17__normal_iteratorIPcSsEES2_S1_S1_", metadata !302, i32 1385, metadata !675, i1 false, i1 false, i32 0, i32 0, null, i1 false} ; [ DW_TAG_subprogram ]
!675 = metadata !{i32 458773, metadata !19, metadata !"", metadata !19, i32 0, i64 0, i64 0, i64 0, i32 0, null, metadata !676, i32 0, null} ; [ DW_TAG_subroutine_type ]
!676 = metadata !{metadata !545, metadata !376, metadata !428, metadata !428, metadata !206, metadata !206}
!677 = metadata !{i32 458798, i32 0, metadata !299, metadata !"replace", metadata !"replace", metadata !"_ZNSs7replaceEN9__gnu_cxx17__normal_iteratorIPcSsEES2_PKcS4_", metadata !302, i32 1396, metadata !678, i1 false, i1 false, i32 0, i32 0, null, i1 false} ; [ DW_TAG_subprogram ]
!678 = metadata !{i32 458773, metadata !19, metadata !"", metadata !19, i32 0, i64 0, i64 0, i64 0, i32 0, null, metadata !679, i32 0, null} ; [ DW_TAG_subroutine_type ]
!679 = metadata !{metadata !545, metadata !376, metadata !428, metadata !428, metadata !170, metadata !170}
!680 = metadata !{i32 458798, i32 0, metadata !299, metadata !"replace", metadata !"replace", metadata !"_ZNSs7replaceEN9__gnu_cxx17__normal_iteratorIPcSsEES2_S2_S2_", metadata !302, i32 1406, metadata !681, i1 false, i1 false, i32 0, i32 0, null, i1 false} ; [ DW_TAG_subprogram ]
!681 = metadata !{i32 458773, metadata !19, metadata !"", metadata !19, i32 0, i64 0, i64 0, i64 0, i32 0, null, metadata !682, i32 0, null} ; [ DW_TAG_subroutine_type ]
!682 = metadata !{metadata !545, metadata !376, metadata !428, metadata !428, metadata !428, metadata !428}
!683 = metadata !{i32 458798, i32 0, metadata !299, metadata !"replace", metadata !"replace", metadata !"_ZNSs7replaceEN9__gnu_cxx17__normal_iteratorIPcSsEES2_NS0_IPKcSsEES5_", metadata !302, i32 1417, metadata !684, i1 false, i1 false, i32 0, i32 0, null, i1 false} ; [ DW_TAG_subprogram ]
!684 = metadata !{i32 458773, metadata !19, metadata !"", metadata !19, i32 0, i64 0, i64 0, i64 0, i32 0, null, metadata !685, i32 0, null} ; [ DW_TAG_subroutine_type ]
!685 = metadata !{metadata !545, metadata !376, metadata !428, metadata !428, metadata !504, metadata !504}
!686 = metadata !{i32 458798, i32 0, metadata !299, metadata !"_M_replace_aux", metadata !"_M_replace_aux", metadata !"_ZNSs14_M_replace_auxEmmmc", metadata !414, i32 651, metadata !660, i1 false, i1 false, i32 0, i32 0, null, i1 false} ; [ DW_TAG_subprogram ]
!687 = metadata !{i32 458798, i32 0, metadata !299, metadata !"_M_replace_safe", metadata !"_M_replace_safe", metadata !"_ZNSs15_M_replace_safeEmmPKcm", metadata !414, i32 664, metadata !654, i1 false, i1 false, i32 0, i32 0, null, i1 false} ; [ DW_TAG_subprogram ]
!688 = metadata !{i32 458798, i32 0, metadata !299, metadata !"_S_construct", metadata !"_S_construct", metadata !"_ZNSs12_S_constructEmcRKSaIcE", metadata !414, i32 166, metadata !689, i1 false, i1 false, i32 0, i32 0, null, i1 false} ; [ DW_TAG_subprogram ]
!689 = metadata !{i32 458773, metadata !19, metadata !"", metadata !19, i32 0, i64 0, i64 0, i64 0, i32 0, null, metadata !690, i32 0, null} ; [ DW_TAG_subroutine_type ]
!690 = metadata !{metadata !206, metadata !140, metadata !172, metadata !358}
!691 = metadata !{i32 458798, i32 0, metadata !299, metadata !"copy", metadata !"copy", metadata !"_ZNKSs4copyEPcmm", metadata !414, i32 705, metadata !692, i1 false, i1 false, i32 0, i32 0, null, i1 false} ; [ DW_TAG_subprogram ]
!692 = metadata !{i32 458773, metadata !19, metadata !"", metadata !19, i32 0, i64 0, i64 0, i64 0, i32 0, null, metadata !693, i32 0, null} ; [ DW_TAG_subroutine_type ]
!693 = metadata !{metadata !138, metadata !371, metadata !206, metadata !140, metadata !140}
!694 = metadata !{i32 458798, i32 0, metadata !299, metadata !"swap", metadata !"swap", metadata !"_ZNSs4swapERSs", metadata !414, i32 501, metadata !695, i1 false, i1 false, i32 0, i32 0, null, i1 false} ; [ DW_TAG_subprogram ]
!695 = metadata !{i32 458773, metadata !19, metadata !"", metadata !19, i32 0, i64 0, i64 0, i64 0, i32 0, null, metadata !696, i32 0, null} ; [ DW_TAG_subroutine_type ]
!696 = metadata !{null, metadata !376, metadata !545}
!697 = metadata !{i32 458798, i32 0, metadata !299, metadata !"c_str", metadata !"c_str", metadata !"_ZNKSs5c_strEv", metadata !302, i32 1522, metadata !698, i1 false, i1 false, i32 0, i32 0, null, i1 false} ; [ DW_TAG_subprogram ]
!698 = metadata !{i32 458773, metadata !19, metadata !"", metadata !19, i32 0, i64 0, i64 0, i64 0, i32 0, null, metadata !699, i32 0, null} ; [ DW_TAG_subroutine_type ]
!699 = metadata !{metadata !170, metadata !371}
!700 = metadata !{i32 458798, i32 0, metadata !299, metadata !"data", metadata !"data", metadata !"_ZNKSs4dataEv", metadata !302, i32 1532, metadata !698, i1 false, i1 false, i32 0, i32 0, null, i1 false} ; [ DW_TAG_subprogram ]
!701 = metadata !{i32 458798, i32 0, metadata !299, metadata !"get_allocator", metadata !"get_allocator", metadata !"_ZNKSs13get_allocatorEv", metadata !302, i32 1539, metadata !702, i1 false, i1 false, i32 0, i32 0, null, i1 false} ; [ DW_TAG_subprogram ]
!702 = metadata !{i32 458773, metadata !19, metadata !"", metadata !19, i32 0, i64 0, i64 0, i64 0, i32 0, null, metadata !703, i32 0, null} ; [ DW_TAG_subroutine_type ]
!703 = metadata !{metadata !306, metadata !371}
!704 = metadata !{i32 458798, i32 0, metadata !299, metadata !"find", metadata !"find", metadata !"_ZNKSs4findEPKcmm", metadata !414, i32 719, metadata !705, i1 false, i1 false, i32 0, i32 0, null, i1 false} ; [ DW_TAG_subprogram ]
!705 = metadata !{i32 458773, metadata !19, metadata !"", metadata !19, i32 0, i64 0, i64 0, i64 0, i32 0, null, metadata !706, i32 0, null} ; [ DW_TAG_subroutine_type ]
!706 = metadata !{metadata !138, metadata !371, metadata !170, metadata !140, metadata !140}
!707 = metadata !{i32 458798, i32 0, metadata !299, metadata !"find", metadata !"find", metadata !"_ZNKSs4findERKSsm", metadata !302, i32 1567, metadata !708, i1 false, i1 false, i32 0, i32 0, null, i1 false} ; [ DW_TAG_subprogram ]
!708 = metadata !{i32 458773, metadata !19, metadata !"", metadata !19, i32 0, i64 0, i64 0, i64 0, i32 0, null, metadata !709, i32 0, null} ; [ DW_TAG_subroutine_type ]
!709 = metadata !{metadata !138, metadata !371, metadata !523, metadata !140}
!710 = metadata !{i32 458798, i32 0, metadata !299, metadata !"find", metadata !"find", metadata !"_ZNKSs4findEPKcm", metadata !302, i32 1581, metadata !711, i1 false, i1 false, i32 0, i32 0, null, i1 false} ; [ DW_TAG_subprogram ]
!711 = metadata !{i32 458773, metadata !19, metadata !"", metadata !19, i32 0, i64 0, i64 0, i64 0, i32 0, null, metadata !712, i32 0, null} ; [ DW_TAG_subroutine_type ]
!712 = metadata !{metadata !138, metadata !371, metadata !170, metadata !140}
!713 = metadata !{i32 458798, i32 0, metadata !299, metadata !"find", metadata !"find", metadata !"_ZNKSs4findEcm", metadata !414, i32 742, metadata !714, i1 false, i1 false, i32 0, i32 0, null, i1 false} ; [ DW_TAG_subprogram ]
!714 = metadata !{i32 458773, metadata !19, metadata !"", metadata !19, i32 0, i64 0, i64 0, i64 0, i32 0, null, metadata !715, i32 0, null} ; [ DW_TAG_subroutine_type ]
!715 = metadata !{metadata !138, metadata !371, metadata !172, metadata !140}
!716 = metadata !{i32 458798, i32 0, metadata !299, metadata !"rfind", metadata !"rfind", metadata !"_ZNKSs5rfindERKSsm", metadata !302, i32 1611, metadata !708, i1 false, i1 false, i32 0, i32 0, null, i1 false} ; [ DW_TAG_subprogram ]
!717 = metadata !{i32 458798, i32 0, metadata !299, metadata !"rfind", metadata !"rfind", metadata !"_ZNKSs5rfindEPKcmm", metadata !414, i32 760, metadata !705, i1 false, i1 false, i32 0, i32 0, null, i1 false} ; [ DW_TAG_subprogram ]
!718 = metadata !{i32 458798, i32 0, metadata !299, metadata !"rfind", metadata !"rfind", metadata !"_ZNKSs5rfindEPKcm", metadata !302, i32 1639, metadata !711, i1 false, i1 false, i32 0, i32 0, null, i1 false} ; [ DW_TAG_subprogram ]
!719 = metadata !{i32 458798, i32 0, metadata !299, metadata !"rfind", metadata !"rfind", metadata !"_ZNKSs5rfindEcm", metadata !414, i32 781, metadata !714, i1 false, i1 false, i32 0, i32 0, null, i1 false} ; [ DW_TAG_subprogram ]
!720 = metadata !{i32 458798, i32 0, metadata !299, metadata !"find_first_of", metadata !"find_first_of", metadata !"_ZNKSs13find_first_ofERKSsm", metadata !302, i32 1669, metadata !708, i1 false, i1 false, i32 0, i32 0, null, i1 false} ; [ DW_TAG_subprogram ]
!721 = metadata !{i32 458798, i32 0, metadata !299, metadata !"find_first_of", metadata !"find_first_of", metadata !"_ZNKSs13find_first_ofEPKcmm", metadata !414, i32 798, metadata !705, i1 false, i1 false, i32 0, i32 0, null, i1 false} ; [ DW_TAG_subprogram ]
!722 = metadata !{i32 458798, i32 0, metadata !299, metadata !"find_first_of", metadata !"find_first_of", metadata !"_ZNKSs13find_first_ofEPKcm", metadata !302, i32 1697, metadata !711, i1 false, i1 false, i32 0, i32 0, null, i1 false} ; [ DW_TAG_subprogram ]
!723 = metadata !{i32 458798, i32 0, metadata !299, metadata !"find_first_of", metadata !"find_first_of", metadata !"_ZNKSs13find_first_ofEcm", metadata !302, i32 1716, metadata !714, i1 false, i1 false, i32 0, i32 0, null, i1 false} ; [ DW_TAG_subprogram ]
!724 = metadata !{i32 458798, i32 0, metadata !299, metadata !"find_last_of", metadata !"find_last_of", metadata !"_ZNKSs12find_last_ofERKSsm", metadata !302, i32 1730, metadata !708, i1 false, i1 false, i32 0, i32 0, null, i1 false} ; [ DW_TAG_subprogram ]
!725 = metadata !{i32 458798, i32 0, metadata !299, metadata !"find_last_of", metadata !"find_last_of", metadata !"_ZNKSs12find_last_ofEPKcmm", metadata !414, i32 813, metadata !705, i1 false, i1 false, i32 0, i32 0, null, i1 false} ; [ DW_TAG_subprogram ]
!726 = metadata !{i32 458798, i32 0, metadata !299, metadata !"find_last_of", metadata !"find_last_of", metadata !"_ZNKSs12find_last_ofEPKcm", metadata !302, i32 1758, metadata !711, i1 false, i1 false, i32 0, i32 0, null, i1 false} ; [ DW_TAG_subprogram ]
!727 = metadata !{i32 458798, i32 0, metadata !299, metadata !"find_last_of", metadata !"find_last_of", metadata !"_ZNKSs12find_last_ofEcm", metadata !302, i32 1777, metadata !714, i1 false, i1 false, i32 0, i32 0, null, i1 false} ; [ DW_TAG_subprogram ]
!728 = metadata !{i32 458798, i32 0, metadata !299, metadata !"find_first_not_of", metadata !"find_first_not_of", metadata !"_ZNKSs17find_first_not_ofERKSsm", metadata !302, i32 1791, metadata !708, i1 false, i1 false, i32 0, i32 0, null, i1 false} ; [ DW_TAG_subprogram ]
!729 = metadata !{i32 458798, i32 0, metadata !299, metadata !"find_first_not_of", metadata !"find_first_not_of", metadata !"_ZNKSs17find_first_not_ofEPKcmm", metadata !414, i32 834, metadata !705, i1 false, i1 false, i32 0, i32 0, null, i1 false} ; [ DW_TAG_subprogram ]
!730 = metadata !{i32 458798, i32 0, metadata !299, metadata !"find_first_not_of", metadata !"find_first_not_of", metadata !"_ZNKSs17find_first_not_ofEPKcm", metadata !302, i32 1820, metadata !711, i1 false, i1 false, i32 0, i32 0, null, i1 false} ; [ DW_TAG_subprogram ]
!731 = metadata !{i32 458798, i32 0, metadata !299, metadata !"find_first_not_of", metadata !"find_first_not_of", metadata !"_ZNKSs17find_first_not_ofEcm", metadata !414, i32 846, metadata !714, i1 false, i1 false, i32 0, i32 0, null, i1 false} ; [ DW_TAG_subprogram ]
!732 = metadata !{i32 458798, i32 0, metadata !299, metadata !"find_last_not_of", metadata !"find_last_not_of", metadata !"_ZNKSs16find_last_not_ofERKSsm", metadata !302, i32 1850, metadata !708, i1 false, i1 false, i32 0, i32 0, null, i1 false} ; [ DW_TAG_subprogram ]
!733 = metadata !{i32 458798, i32 0, metadata !299, metadata !"find_last_not_of", metadata !"find_last_not_of", metadata !"_ZNKSs16find_last_not_ofEPKcmm", metadata !414, i32 857, metadata !705, i1 false, i1 false, i32 0, i32 0, null, i1 false} ; [ DW_TAG_subprogram ]
!734 = metadata !{i32 458798, i32 0, metadata !299, metadata !"find_last_not_of", metadata !"find_last_not_of", metadata !"_ZNKSs16find_last_not_ofEPKcm", metadata !302, i32 1879, metadata !711, i1 false, i1 false, i32 0, i32 0, null, i1 false} ; [ DW_TAG_subprogram ]
!735 = metadata !{i32 458798, i32 0, metadata !299, metadata !"find_last_not_of", metadata !"find_last_not_of", metadata !"_ZNKSs16find_last_not_ofEcm", metadata !414, i32 878, metadata !714, i1 false, i1 false, i32 0, i32 0, null, i1 false} ; [ DW_TAG_subprogram ]
!736 = metadata !{i32 458798, i32 0, metadata !299, metadata !"substr", metadata !"substr", metadata !"_ZNKSs6substrEmm", metadata !302, i32 1911, metadata !737, i1 false, i1 false, i32 0, i32 0, null, i1 false} ; [ DW_TAG_subprogram ]
!737 = metadata !{i32 458773, metadata !19, metadata !"", metadata !19, i32 0, i64 0, i64 0, i64 0, i32 0, null, metadata !738, i32 0, null} ; [ DW_TAG_subroutine_type ]
!738 = metadata !{metadata !299, metadata !371, metadata !140, metadata !140}
!739 = metadata !{i32 458798, i32 0, metadata !299, metadata !"compare", metadata !"compare", metadata !"_ZNKSs7compareERKSs", metadata !302, i32 1929, metadata !740, i1 false, i1 false, i32 0, i32 0, null, i1 false} ; [ DW_TAG_subprogram ]
!740 = metadata !{i32 458773, metadata !19, metadata !"", metadata !19, i32 0, i64 0, i64 0, i64 0, i32 0, null, metadata !741, i32 0, null} ; [ DW_TAG_subroutine_type ]
!741 = metadata !{metadata !31, metadata !371, metadata !523}
!742 = metadata !{i32 458798, i32 0, metadata !299, metadata !"compare", metadata !"compare", metadata !"_ZNKSs7compareEmmRKSs", metadata !414, i32 898, metadata !743, i1 false, i1 false, i32 0, i32 0, null, i1 false} ; [ DW_TAG_subprogram ]
!743 = metadata !{i32 458773, metadata !19, metadata !"", metadata !19, i32 0, i64 0, i64 0, i64 0, i32 0, null, metadata !744, i32 0, null} ; [ DW_TAG_subroutine_type ]
!744 = metadata !{metadata !31, metadata !371, metadata !140, metadata !140, metadata !523}
!745 = metadata !{i32 458798, i32 0, metadata !299, metadata !"compare", metadata !"compare", metadata !"_ZNKSs7compareEmmRKSsmm", metadata !414, i32 914, metadata !746, i1 false, i1 false, i32 0, i32 0, null, i1 false} ; [ DW_TAG_subprogram ]
!746 = metadata !{i32 458773, metadata !19, metadata !"", metadata !19, i32 0, i64 0, i64 0, i64 0, i32 0, null, metadata !747, i32 0, null} ; [ DW_TAG_subroutine_type ]
!747 = metadata !{metadata !31, metadata !371, metadata !140, metadata !140, metadata !523, metadata !140, metadata !140}
!748 = metadata !{i32 458798, i32 0, metadata !299, metadata !"compare", metadata !"compare", metadata !"_ZNKSs7compareEPKc", metadata !414, i32 931, metadata !749, i1 false, i1 false, i32 0, i32 0, null, i1 false} ; [ DW_TAG_subprogram ]
!749 = metadata !{i32 458773, metadata !19, metadata !"", metadata !19, i32 0, i64 0, i64 0, i64 0, i32 0, null, metadata !750, i32 0, null} ; [ DW_TAG_subroutine_type ]
!750 = metadata !{metadata !31, metadata !371, metadata !170}
!751 = metadata !{i32 458798, i32 0, metadata !299, metadata !"compare", metadata !"compare", metadata !"_ZNKSs7compareEmmPKc", metadata !414, i32 946, metadata !752, i1 false, i1 false, i32 0, i32 0, null, i1 false} ; [ DW_TAG_subprogram ]
!752 = metadata !{i32 458773, metadata !19, metadata !"", metadata !19, i32 0, i64 0, i64 0, i64 0, i32 0, null, metadata !753, i32 0, null} ; [ DW_TAG_subroutine_type ]
!753 = metadata !{metadata !31, metadata !371, metadata !140, metadata !140, metadata !170}
!754 = metadata !{i32 458798, i32 0, metadata !299, metadata !"compare", metadata !"compare", metadata !"_ZNKSs7compareEmmPKcm", metadata !414, i32 963, metadata !755, i1 false, i1 false, i32 0, i32 0, null, i1 false} ; [ DW_TAG_subprogram ]
!755 = metadata !{i32 458773, metadata !19, metadata !"", metadata !19, i32 0, i64 0, i64 0, i64 0, i32 0, null, metadata !756, i32 0, null} ; [ DW_TAG_subroutine_type ]
!756 = metadata !{metadata !31, metadata !371, metadata !140, metadata !140, metadata !170, metadata !140}
!757 = metadata !{i32 458767, metadata !19, metadata !"", metadata !19, i32 0, i64 64, i64 64, i64 0, i32 64, metadata !278} ; [ DW_TAG_pointer_type ]
!758 = metadata !{i32 458798, i32 0, metadata !115, metadata !"operator==", metadata !"operator==", metadata !"_ZNKSt6localeeqERKS_", metadata !116, i32 231, metadata !759, i1 false, i1 false, i32 0, i32 0, null, i1 false} ; [ DW_TAG_subprogram ]
!759 = metadata !{i32 458773, metadata !19, metadata !"", metadata !19, i32 0, i64 0, i64 0, i64 0, i32 0, null, metadata !760, i32 0, null} ; [ DW_TAG_subroutine_type ]
!760 = metadata !{metadata !233, metadata !757, metadata !277}
!761 = metadata !{i32 458798, i32 0, metadata !115, metadata !"operator!=", metadata !"operator!=", metadata !"_ZNKSt6localeneERKS_", metadata !116, i32 240, metadata !759, i1 false, i1 false, i32 0, i32 0, null, i1 false} ; [ DW_TAG_subprogram ]
!762 = metadata !{i32 458798, i32 0, metadata !115, metadata !"global", metadata !"global", metadata !"_ZNSt6locale6globalERKS_", metadata !116, i32 275, metadata !763, i1 false, i1 false, i32 0, i32 0, null, i1 false} ; [ DW_TAG_subprogram ]
!763 = metadata !{i32 458773, metadata !19, metadata !"", metadata !19, i32 0, i64 0, i64 0, i64 0, i32 0, null, metadata !764, i32 0, null} ; [ DW_TAG_subroutine_type ]
!764 = metadata !{metadata !115, metadata !277}
!765 = metadata !{i32 458798, i32 0, metadata !115, metadata !"classic", metadata !"classic", metadata !"_ZNSt6locale7classicEv", metadata !116, i32 281, metadata !766, i1 false, i1 false, i32 0, i32 0, null, i1 false} ; [ DW_TAG_subprogram ]
!766 = metadata !{i32 458773, metadata !19, metadata !"", metadata !19, i32 0, i64 0, i64 0, i64 0, i32 0, null, metadata !767, i32 0, null} ; [ DW_TAG_subroutine_type ]
!767 = metadata !{metadata !277}
!768 = metadata !{i32 458798, i32 0, metadata !115, metadata !"locale", metadata !"locale", metadata !"", metadata !116, i32 316, metadata !769, i1 false, i1 false, i32 0, i32 0, null, i1 false} ; [ DW_TAG_subprogram ]
!769 = metadata !{i32 458773, metadata !19, metadata !"", metadata !19, i32 0, i64 0, i64 0, i64 0, i32 0, null, metadata !770, i32 0, null} ; [ DW_TAG_subroutine_type ]
!770 = metadata !{null, metadata !273, metadata !119}
!771 = metadata !{i32 458798, i32 0, metadata !115, metadata !"_S_initialize", metadata !"_S_initialize", metadata !"_ZNSt6locale13_S_initializeEv", metadata !116, i32 319, metadata !132, i1 false, i1 false, i32 0, i32 0, null, i1 false} ; [ DW_TAG_subprogram ]
!772 = metadata !{i32 458798, i32 0, metadata !115, metadata !"_S_initialize_once", metadata !"_S_initialize_once", metadata !"_ZNSt6locale18_S_initialize_onceEv", metadata !116, i32 322, metadata !132, i1 false, i1 false, i32 0, i32 0, null, i1 false} ; [ DW_TAG_subprogram ]
!773 = metadata !{i32 458798, i32 0, metadata !115, metadata !"_S_normalize_category", metadata !"_S_normalize_category", metadata !"_ZNSt6locale21_S_normalize_categoryEi", metadata !116, i32 325, metadata !774, i1 false, i1 false, i32 0, i32 0, null, i1 false} ; [ DW_TAG_subprogram ]
!774 = metadata !{i32 458773, metadata !19, metadata !"", metadata !19, i32 0, i64 0, i64 0, i64 0, i32 0, null, metadata !775, i32 0, null} ; [ DW_TAG_subroutine_type ]
!775 = metadata !{metadata !31, metadata !31}
!776 = metadata !{i32 458798, i32 0, metadata !115, metadata !"_M_coalesce", metadata !"_M_coalesce", metadata !"_ZNSt6locale11_M_coalesceERKS_S1_i", metadata !116, i32 328, metadata !286, i1 false, i1 false, i32 0, i32 0, null, i1 false} ; [ DW_TAG_subprogram ]
!777 = metadata !{i32 458798, i32 0, metadata !23, metadata !"register_callback", metadata !"register_callback", metadata !"_ZNSt8ios_base17register_callbackEPFvNS_5eventERS_iEi", metadata !24, i32 448, metadata !778, i1 false, i1 false, i32 0, i32 0, null, i1 false} ; [ DW_TAG_subprogram ]
!778 = metadata !{i32 458773, metadata !19, metadata !"", metadata !19, i32 0, i64 0, i64 0, i64 0, i32 0, null, metadata !779, i32 0, null} ; [ DW_TAG_subroutine_type ]
!779 = metadata !{null, metadata !780, metadata !74, metadata !31}
!780 = metadata !{i32 458767, metadata !19, metadata !"", metadata !19, i32 0, i64 64, i64 64, i64 0, i32 64, metadata !23} ; [ DW_TAG_pointer_type ]
!781 = metadata !{i32 458798, i32 0, metadata !23, metadata !"_M_call_callbacks", metadata !"_M_call_callbacks", metadata !"_ZNSt8ios_base17_M_call_callbacksENS_5eventE", metadata !24, i32 490, metadata !782, i1 false, i1 false, i32 0, i32 0, null, i1 false} ; [ DW_TAG_subprogram ]
!782 = metadata !{i32 458773, metadata !19, metadata !"", metadata !19, i32 0, i64 0, i64 0, i64 0, i32 0, null, metadata !783, i32 0, null} ; [ DW_TAG_subroutine_type ]
!783 = metadata !{null, metadata !780, metadata !77}
!784 = metadata !{i32 458798, i32 0, metadata !23, metadata !"_M_dispose_callbacks", metadata !"_M_dispose_callbacks", metadata !"_ZNSt8ios_base20_M_dispose_callbacksEv", metadata !24, i32 493, metadata !785, i1 false, i1 false, i32 0, i32 0, null, i1 false} ; [ DW_TAG_subprogram ]
!785 = metadata !{i32 458773, metadata !19, metadata !"", metadata !19, i32 0, i64 0, i64 0, i64 0, i32 0, null, metadata !786, i32 0, null} ; [ DW_TAG_subroutine_type ]
!786 = metadata !{null, metadata !780}
!787 = metadata !{i32 458798, i32 0, metadata !23, metadata !"_M_grow_words", metadata !"_M_grow_words", metadata !"_ZNSt8ios_base13_M_grow_wordsEib", metadata !24, i32 516, metadata !788, i1 false, i1 false, i32 0, i32 0, null, i1 false} ; [ DW_TAG_subprogram ]
!788 = metadata !{i32 458773, metadata !19, metadata !"", metadata !19, i32 0, i64 0, i64 0, i64 0, i32 0, null, metadata !789, i32 0, null} ; [ DW_TAG_subroutine_type ]
!789 = metadata !{metadata !790, metadata !780, metadata !31, metadata !233}
!790 = metadata !{i32 458768, metadata !19, metadata !"_Words", metadata !19, i32 0, i64 64, i64 64, i64 0, i32 0, metadata !98} ; [ DW_TAG_reference_type ]
!791 = metadata !{i32 458798, i32 0, metadata !23, metadata !"_M_init", metadata !"_M_init", metadata !"_ZNSt8ios_base7_M_initEv", metadata !24, i32 522, metadata !785, i1 false, i1 false, i32 0, i32 0, null, i1 false} ; [ DW_TAG_subprogram ]
!792 = metadata !{i32 458798, i32 0, metadata !23, metadata !"flags", metadata !"flags", metadata !"_ZNKSt8ios_base5flagsEv", metadata !24, i32 548, metadata !793, i1 false, i1 false, i32 0, i32 0, null, i1 false} ; [ DW_TAG_subprogram ]
!793 = metadata !{i32 458773, metadata !19, metadata !"", metadata !19, i32 0, i64 0, i64 0, i64 0, i32 0, null, metadata !794, i32 0, null} ; [ DW_TAG_subroutine_type ]
!794 = metadata !{metadata !38, metadata !795}
!795 = metadata !{i32 458767, metadata !19, metadata !"", metadata !19, i32 0, i64 64, i64 64, i64 0, i32 64, metadata !796} ; [ DW_TAG_pointer_type ]
!796 = metadata !{i32 458790, metadata !18, metadata !"", metadata !19, i32 0, i64 1728, i64 64, i64 0, i32 0, metadata !23} ; [ DW_TAG_const_type ]
!797 = metadata !{i32 458798, i32 0, metadata !23, metadata !"flags", metadata !"flags", metadata !"_ZNSt8ios_base5flagsESt13_Ios_Fmtflags", metadata !24, i32 558, metadata !798, i1 false, i1 false, i32 0, i32 0, null, i1 false} ; [ DW_TAG_subprogram ]
!798 = metadata !{i32 458773, metadata !19, metadata !"", metadata !19, i32 0, i64 0, i64 0, i64 0, i32 0, null, metadata !799, i32 0, null} ; [ DW_TAG_subroutine_type ]
!799 = metadata !{metadata !38, metadata !780, metadata !38}
!800 = metadata !{i32 458798, i32 0, metadata !23, metadata !"setf", metadata !"setf", metadata !"_ZNSt8ios_base4setfESt13_Ios_Fmtflags", metadata !24, i32 574, metadata !798, i1 false, i1 false, i32 0, i32 0, null, i1 false} ; [ DW_TAG_subprogram ]
!801 = metadata !{i32 458798, i32 0, metadata !23, metadata !"setf", metadata !"setf", metadata !"_ZNSt8ios_base4setfESt13_Ios_FmtflagsS0_", metadata !24, i32 591, metadata !802, i1 false, i1 false, i32 0, i32 0, null, i1 false} ; [ DW_TAG_subprogram ]
!802 = metadata !{i32 458773, metadata !19, metadata !"", metadata !19, i32 0, i64 0, i64 0, i64 0, i32 0, null, metadata !803, i32 0, null} ; [ DW_TAG_subroutine_type ]
!803 = metadata !{metadata !38, metadata !780, metadata !38, metadata !38}
!804 = metadata !{i32 458798, i32 0, metadata !23, metadata !"unsetf", metadata !"unsetf", metadata !"_ZNSt8ios_base6unsetfESt13_Ios_Fmtflags", metadata !24, i32 606, metadata !805, i1 false, i1 false, i32 0, i32 0, null, i1 false} ; [ DW_TAG_subprogram ]
!805 = metadata !{i32 458773, metadata !19, metadata !"", metadata !19, i32 0, i64 0, i64 0, i64 0, i32 0, null, metadata !806, i32 0, null} ; [ DW_TAG_subroutine_type ]
!806 = metadata !{null, metadata !780, metadata !38}
!807 = metadata !{i32 458798, i32 0, metadata !23, metadata !"precision", metadata !"precision", metadata !"_ZNKSt8ios_base9precisionEv", metadata !24, i32 618, metadata !808, i1 false, i1 false, i32 0, i32 0, null, i1 false} ; [ DW_TAG_subprogram ]
!808 = metadata !{i32 458773, metadata !19, metadata !"", metadata !19, i32 0, i64 0, i64 0, i64 0, i32 0, null, metadata !809, i32 0, null} ; [ DW_TAG_subroutine_type ]
!809 = metadata !{metadata !33, metadata !795}
!810 = metadata !{i32 458798, i32 0, metadata !23, metadata !"precision", metadata !"precision", metadata !"_ZNSt8ios_base9precisionEl", metadata !24, i32 626, metadata !811, i1 false, i1 false, i32 0, i32 0, null, i1 false} ; [ DW_TAG_subprogram ]
!811 = metadata !{i32 458773, metadata !19, metadata !"", metadata !19, i32 0, i64 0, i64 0, i64 0, i32 0, null, metadata !812, i32 0, null} ; [ DW_TAG_subroutine_type ]
!812 = metadata !{metadata !33, metadata !780, metadata !33}
!813 = metadata !{i32 458798, i32 0, metadata !23, metadata !"width", metadata !"width", metadata !"_ZNKSt8ios_base5widthEv", metadata !24, i32 640, metadata !808, i1 false, i1 false, i32 0, i32 0, null, i1 false} ; [ DW_TAG_subprogram ]
!814 = metadata !{i32 458798, i32 0, metadata !23, metadata !"width", metadata !"width", metadata !"_ZNSt8ios_base5widthEl", metadata !24, i32 648, metadata !811, i1 false, i1 false, i32 0, i32 0, null, i1 false} ; [ DW_TAG_subprogram ]
!815 = metadata !{i32 458798, i32 0, metadata !23, metadata !"sync_with_stdio", metadata !"sync_with_stdio", metadata !"_ZNSt8ios_base15sync_with_stdioEb", metadata !24, i32 667, metadata !816, i1 false, i1 false, i32 0, i32 0, null, i1 false} ; [ DW_TAG_subprogram ]
!816 = metadata !{i32 458773, metadata !19, metadata !"", metadata !19, i32 0, i64 0, i64 0, i64 0, i32 0, null, metadata !817, i32 0, null} ; [ DW_TAG_subroutine_type ]
!817 = metadata !{metadata !233, metadata !233}
!818 = metadata !{i32 458798, i32 0, metadata !23, metadata !"imbue", metadata !"imbue", metadata !"_ZNSt8ios_base5imbueERKSt6locale", metadata !24, i32 679, metadata !819, i1 false, i1 false, i32 0, i32 0, null, i1 false} ; [ DW_TAG_subprogram ]
!819 = metadata !{i32 458773, metadata !19, metadata !"", metadata !19, i32 0, i64 0, i64 0, i64 0, i32 0, null, metadata !820, i32 0, null} ; [ DW_TAG_subroutine_type ]
!820 = metadata !{metadata !115, metadata !780, metadata !277}
!821 = metadata !{i32 458798, i32 0, metadata !23, metadata !"getloc", metadata !"getloc", metadata !"_ZNKSt8ios_base6getlocEv", metadata !24, i32 690, metadata !822, i1 false, i1 false, i32 0, i32 0, null, i1 false} ; [ DW_TAG_subprogram ]
!822 = metadata !{i32 458773, metadata !19, metadata !"", metadata !19, i32 0, i64 0, i64 0, i64 0, i32 0, null, metadata !823, i32 0, null} ; [ DW_TAG_subroutine_type ]
!823 = metadata !{metadata !115, metadata !795}
!824 = metadata !{i32 458798, i32 0, metadata !23, metadata !"_M_getloc", metadata !"_M_getloc", metadata !"_ZNKSt8ios_base9_M_getlocEv", metadata !24, i32 700, metadata !825, i1 false, i1 false, i32 0, i32 0, null, i1 false} ; [ DW_TAG_subprogram ]
!825 = metadata !{i32 458773, metadata !19, metadata !"", metadata !19, i32 0, i64 0, i64 0, i64 0, i32 0, null, metadata !826, i32 0, null} ; [ DW_TAG_subroutine_type ]
!826 = metadata !{metadata !277, metadata !795}
!827 = metadata !{i32 458798, i32 0, metadata !23, metadata !"xalloc", metadata !"xalloc", metadata !"_ZNSt8ios_base6xallocEv", metadata !24, i32 718, metadata !29, i1 false, i1 false, i32 0, i32 0, null, i1 false} ; [ DW_TAG_subprogram ]
!828 = metadata !{i32 458798, i32 0, metadata !23, metadata !"iword", metadata !"iword", metadata !"_ZNSt8ios_base5iwordEi", metadata !24, i32 734, metadata !829, i1 false, i1 false, i32 0, i32 0, null, i1 false} ; [ DW_TAG_subprogram ]
!829 = metadata !{i32 458773, metadata !19, metadata !"", metadata !19, i32 0, i64 0, i64 0, i64 0, i32 0, null, metadata !830, i32 0, null} ; [ DW_TAG_subroutine_type ]
!830 = metadata !{metadata !831, metadata !780, metadata !31}
!831 = metadata !{i32 458768, metadata !19, metadata !"long int", metadata !19, i32 0, i64 64, i64 64, i64 0, i32 0, metadata !35} ; [ DW_TAG_reference_type ]
!832 = metadata !{i32 458798, i32 0, metadata !23, metadata !"pword", metadata !"pword", metadata !"_ZNSt8ios_base5pwordEi", metadata !24, i32 755, metadata !833, i1 false, i1 false, i32 0, i32 0, null, i1 false} ; [ DW_TAG_subprogram ]
!833 = metadata !{i32 458773, metadata !19, metadata !"", metadata !19, i32 0, i64 0, i64 0, i64 0, i32 0, null, metadata !834, i32 0, null} ; [ DW_TAG_subroutine_type ]
!834 = metadata !{metadata !835, metadata !780, metadata !31}
!835 = metadata !{i32 458768, metadata !19, metadata !"", metadata !19, i32 0, i64 64, i64 64, i64 0, i32 0, metadata !101} ; [ DW_TAG_reference_type ]
!836 = metadata !{i32 458798, i32 0, metadata !23, metadata !"~ios_base", metadata !"~ios_base", metadata !"", metadata !24, i32 771, metadata !837, i1 false, i1 false, i32 1, i32 0, metadata !23, i1 false} ; [ DW_TAG_subprogram ]
!837 = metadata !{i32 458773, metadata !19, metadata !"", metadata !19, i32 0, i64 0, i64 0, i64 0, i32 0, null, metadata !838, i32 0, null} ; [ DW_TAG_subroutine_type ]
!838 = metadata !{null, metadata !780, metadata !31}
!839 = metadata !{i32 458798, i32 0, metadata !23, metadata !"ios_base", metadata !"ios_base", metadata !"", metadata !24, i32 774, metadata !785, i1 false, i1 false, i32 0, i32 0, null, i1 false} ; [ DW_TAG_subprogram ]
!840 = metadata !{i32 458798, i32 0, metadata !23, metadata !"ios_base", metadata !"ios_base", metadata !"", metadata !24, i32 779, metadata !841, i1 false, i1 false, i32 0, i32 0, null, i1 false} ; [ DW_TAG_subprogram ]
!841 = metadata !{i32 458773, metadata !19, metadata !"", metadata !19, i32 0, i64 0, i64 0, i64 0, i32 0, null, metadata !842, i32 0, null} ; [ DW_TAG_subroutine_type ]
!842 = metadata !{null, metadata !780, metadata !843}
!843 = metadata !{i32 458768, metadata !19, metadata !"", metadata !19, i32 0, i64 64, i64 64, i64 0, i32 0, metadata !796} ; [ DW_TAG_reference_type ]
!844 = metadata !{i32 458798, i32 0, metadata !23, metadata !"operator=", metadata !"operator=", metadata !"_ZNSt8ios_baseaSERKS_", metadata !24, i32 782, metadata !845, i1 false, i1 false, i32 0, i32 0, null, i1 false} ; [ DW_TAG_subprogram ]
!845 = metadata !{i32 458773, metadata !19, metadata !"", metadata !19, i32 0, i64 0, i64 0, i64 0, i32 0, null, metadata !846, i32 0, null} ; [ DW_TAG_subroutine_type ]
!846 = metadata !{metadata !82, metadata !780, metadata !843}
!847 = metadata !{metadata !848, metadata !852}
!848 = metadata !{i32 458798, i32 0, metadata !22, metadata !"Init", metadata !"Init", metadata !"", metadata !24, i32 534, metadata !849, i1 false, i1 false, i32 0, i32 0, null, i1 false} ; [ DW_TAG_subprogram ]
!849 = metadata !{i32 458773, metadata !19, metadata !"", metadata !19, i32 0, i64 0, i64 0, i64 0, i32 0, null, metadata !850, i32 0, null} ; [ DW_TAG_subroutine_type ]
!850 = metadata !{null, metadata !851}
!851 = metadata !{i32 458767, metadata !19, metadata !"", metadata !19, i32 0, i64 64, i64 64, i64 0, i32 64, metadata !22} ; [ DW_TAG_pointer_type ]
!852 = metadata !{i32 458798, i32 0, metadata !22, metadata !"~Init", metadata !"~Init", metadata !"", metadata !24, i32 535, metadata !853, i1 false, i1 false, i32 0, i32 0, null, i1 false} ; [ DW_TAG_subprogram ]
!853 = metadata !{i32 458773, metadata !19, metadata !"", metadata !19, i32 0, i64 0, i64 0, i64 0, i32 0, null, metadata !854, i32 0, null} ; [ DW_TAG_subroutine_type ]
!854 = metadata !{null, metadata !851, metadata !31}
!855 = metadata !{i32 458804, i32 0, metadata !856, metadata !"k", metadata !"k", metadata !"", metadata !857, i32 3, metadata !858, i1 true, i1 true, null} ; [ DW_TAG_variable ]
!856 = metadata !{i32 458769, i32 0, i32 4, metadata !"gaussian_loopFusion.pragma.2.cpp", metadata !"/users/deastir/mcaceres/Documents/VIVADO/TP_Vivado_HLS/TP_Vivado_HLS/gaussian/solution1/.autopilot/db", metadata !"4.2.1 (Based on Apple Inc. build 5658) (LLVM build 2.7)", i1 true, i1 false, metadata !"", i32 0} ; [ DW_TAG_compile_unit ]
!857 = metadata !{i32 458769, i32 0, i32 4, metadata !"gaussian_loopFusion.cpp", metadata !"/users/deastir/mcaceres/Documents/VIVADO/TP_Vivado_HLS/TP_Vivado_HLS/src", metadata !"4.2.1 (Based on Apple Inc. build 5658) (LLVM build 2.7)", i1 false, i1 false, metadata !"", i32 0} ; [ DW_TAG_compile_unit ]
!858 = metadata !{i32 458753, metadata !856, metadata !"", metadata !856, i32 0, i64 96, i64 32, i64 0, i32 0, metadata !859, metadata !5, i32 0, null} ; [ DW_TAG_array_type ]
!859 = metadata !{i32 458788, metadata !856, metadata !"float", metadata !856, i32 0, i64 32, i64 32, i64 0, i32 0, i32 4} ; [ DW_TAG_base_type ]
!860 = metadata !{i32 458804, i32 0, metadata !856, metadata !"tmp", metadata !"tmp", metadata !"", metadata !857, i32 5, metadata !861, i1 true, i1 true, null} ; [ DW_TAG_variable ]
!861 = metadata !{i32 458753, metadata !856, metadata !"", metadata !856, i32 0, i64 66355200, i64 32, i64 0, i32 0, metadata !859, metadata !862, i32 0, null} ; [ DW_TAG_array_type ]
!862 = metadata !{metadata !863, metadata !10}
!863 = metadata !{i32 458785, i64 0, i64 1079}    ; [ DW_TAG_subrange_type ]
!864 = metadata !{i32 458804, i32 0, metadata !865, metadata !"k", metadata !"k", metadata !"", metadata !866, i32 3, metadata !867, i1 true, i1 true, null} ; [ DW_TAG_variable ]
!865 = metadata !{i32 458769, i32 0, i32 4, metadata !"gaussian_scalarized.pragma.2.cpp", metadata !"/users/deastir/mcaceres/Documents/VIVADO/TP_Vivado_HLS/TP_Vivado_HLS/gaussian/solution1/.autopilot/db", metadata !"4.2.1 (Based on Apple Inc. build 5658) (LLVM build 2.7)", i1 true, i1 false, metadata !"", i32 0} ; [ DW_TAG_compile_unit ]
!866 = metadata !{i32 458769, i32 0, i32 4, metadata !"gaussian_scalarized.cpp", metadata !"/users/deastir/mcaceres/Documents/VIVADO/TP_Vivado_HLS/TP_Vivado_HLS/src", metadata !"4.2.1 (Based on Apple Inc. build 5658) (LLVM build 2.7)", i1 false, i1 false, metadata !"", i32 0} ; [ DW_TAG_compile_unit ]
!867 = metadata !{i32 458753, metadata !865, metadata !"", metadata !865, i32 0, i64 96, i64 32, i64 0, i32 0, metadata !868, metadata !5, i32 0, null} ; [ DW_TAG_array_type ]
!868 = metadata !{i32 458788, metadata !865, metadata !"float", metadata !865, i32 0, i64 32, i64 32, i64 0, i32 0, i32 4} ; [ DW_TAG_base_type ]
!869 = metadata !{i32 458804, i32 0, metadata !870, metadata !"k", metadata !"k", metadata !"", metadata !871, i32 11, metadata !872, i1 true, i1 true, null} ; [ DW_TAG_variable ]
!870 = metadata !{i32 458769, i32 0, i32 4, metadata !"gaussian_sep.pragma.2.cpp", metadata !"/users/deastir/mcaceres/Documents/VIVADO/TP_Vivado_HLS/TP_Vivado_HLS/gaussian/solution1/.autopilot/db", metadata !"4.2.1 (Based on Apple Inc. build 5658) (LLVM build 2.7)", i1 true, i1 false, metadata !"", i32 0} ; [ DW_TAG_compile_unit ]
!871 = metadata !{i32 458769, i32 0, i32 4, metadata !"gaussian_sep.cpp", metadata !"/users/deastir/mcaceres/Documents/VIVADO/TP_Vivado_HLS/TP_Vivado_HLS/src", metadata !"4.2.1 (Based on Apple Inc. build 5658) (LLVM build 2.7)", i1 false, i1 false, metadata !"", i32 0} ; [ DW_TAG_compile_unit ]
!872 = metadata !{i32 458753, metadata !870, metadata !"", metadata !870, i32 0, i64 96, i64 32, i64 0, i32 0, metadata !873, metadata !5, i32 0, null} ; [ DW_TAG_array_type ]
!873 = metadata !{i32 458788, metadata !870, metadata !"float", metadata !870, i32 0, i64 32, i64 32, i64 0, i32 0, i32 4} ; [ DW_TAG_base_type ]
!874 = metadata !{i32 458804, i32 0, metadata !870, metadata !"tmp", metadata !"tmp", metadata !"", metadata !871, i32 14, metadata !875, i1 true, i1 true, null} ; [ DW_TAG_variable ]
!875 = metadata !{i32 458753, metadata !870, metadata !"", metadata !870, i32 0, i64 66355200, i64 32, i64 0, i32 0, metadata !873, metadata !862, i32 0, null} ; [ DW_TAG_array_type ]
!876 = metadata !{i32 459009, metadata !877, metadata !"in", metadata !879, i32 4, metadata !882} ; [ DW_TAG_arg_variable ]
!877 = metadata !{i32 458798, i32 0, metadata !878, metadata !"gaussian", metadata !"gaussian", metadata !"_Z8gaussianPA1920_tS0_", metadata !879, i32 4, metadata !880, i1 false, i1 true, i32 0, i32 0, null, i1 false} ; [ DW_TAG_subprogram ]
!878 = metadata !{i32 458769, i32 0, i32 4, metadata !"gaussian.pragma.2.cpp", metadata !"/users/deastir/mcaceres/Documents/VIVADO/TP_Vivado_HLS/TP_Vivado_HLS/gaussian/solution1/.autopilot/db", metadata !"4.2.1 (Based on Apple Inc. build 5658) (LLVM build 2.7)", i1 true, i1 false, metadata !"", i32 0} ; [ DW_TAG_compile_unit ]
!879 = metadata !{i32 458769, i32 0, i32 4, metadata !"gaussian.cpp", metadata !"/users/deastir/mcaceres/Documents/VIVADO/TP_Vivado_HLS/TP_Vivado_HLS/src", metadata !"4.2.1 (Based on Apple Inc. build 5658) (LLVM build 2.7)", i1 false, i1 false, metadata !"", i32 0} ; [ DW_TAG_compile_unit ]
!880 = metadata !{i32 458773, metadata !878, metadata !"", metadata !878, i32 0, i64 0, i64 0, i64 0, i32 0, null, metadata !881, i32 0, null} ; [ DW_TAG_subroutine_type ]
!881 = metadata !{null, metadata !882, metadata !882}
!882 = metadata !{i32 458767, metadata !878, metadata !"", metadata !878, i32 0, i64 64, i64 64, i64 0, i32 0, metadata !883} ; [ DW_TAG_pointer_type ]
!883 = metadata !{i32 458753, metadata !878, metadata !"", metadata !878, i32 0, i64 30720, i64 16, i64 0, i32 0, metadata !884, metadata !9, i32 0, null} ; [ DW_TAG_array_type ]
!884 = metadata !{i32 458788, metadata !878, metadata !"short unsigned int", metadata !878, i32 0, i64 16, i64 16, i64 0, i32 0, i32 7} ; [ DW_TAG_base_type ]
!885 = metadata !{i32 459009, metadata !877, metadata !"out", metadata !879, i32 4, metadata !882} ; [ DW_TAG_arg_variable ]
!886 = metadata !{i32 5, i32 0, metadata !887, null}
!887 = metadata !{i32 458763, metadata !877, i32 4, i32 0} ; [ DW_TAG_lexical_block ]
!888 = metadata !{i32 6, i32 0, metadata !887, null}
!889 = metadata !{i32 7, i32 0, metadata !887, null}
!890 = metadata !{i32 12, i32 0, metadata !887, null}
!891 = metadata !{i32 15, i32 0, metadata !887, null}
!892 = metadata !{i32 459009, metadata !893, metadata !"in", metadata !866, i32 5, metadata !896} ; [ DW_TAG_arg_variable ]
!893 = metadata !{i32 458798, i32 0, metadata !865, metadata !"gaussian_scalarized", metadata !"gaussian_scalarized", metadata !"_Z19gaussian_scalarizedPA1920_tS0_", metadata !866, i32 5, metadata !894, i1 false, i1 true, i32 0, i32 0, null, i1 false} ; [ DW_TAG_subprogram ]
!894 = metadata !{i32 458773, metadata !865, metadata !"", metadata !865, i32 0, i64 0, i64 0, i64 0, i32 0, null, metadata !895, i32 0, null} ; [ DW_TAG_subroutine_type ]
!895 = metadata !{null, metadata !896, metadata !896}
!896 = metadata !{i32 458767, metadata !865, metadata !"", metadata !865, i32 0, i64 64, i64 64, i64 0, i32 0, metadata !897} ; [ DW_TAG_pointer_type ]
!897 = metadata !{i32 458753, metadata !865, metadata !"", metadata !865, i32 0, i64 30720, i64 16, i64 0, i32 0, metadata !898, metadata !9, i32 0, null} ; [ DW_TAG_array_type ]
!898 = metadata !{i32 458788, metadata !865, metadata !"short unsigned int", metadata !865, i32 0, i64 16, i64 16, i64 0, i32 0, i32 7} ; [ DW_TAG_base_type ]
!899 = metadata !{i32 459009, metadata !893, metadata !"out", metadata !866, i32 5, metadata !896} ; [ DW_TAG_arg_variable ]
!900 = metadata !{i32 6, i32 0, metadata !901, null}
!901 = metadata !{i32 458763, metadata !902, i32 5, i32 0} ; [ DW_TAG_lexical_block ]
!902 = metadata !{i32 458763, metadata !893, i32 5, i32 0} ; [ DW_TAG_lexical_block ]
!903 = metadata !{i32 21, i32 0, metadata !901, null}
!904 = metadata !{i32 22, i32 0, metadata !901, null}
!905 = metadata !{i32 459008, metadata !901, metadata !"tmp0", metadata !866, i32 19, metadata !868} ; [ DW_TAG_auto_variable ]
!906 = metadata !{i32 23, i32 0, metadata !901, null}
!907 = metadata !{i32 459008, metadata !901, metadata !"tmp1", metadata !866, i32 19, metadata !868} ; [ DW_TAG_auto_variable ]
!908 = metadata !{i32 24, i32 0, metadata !901, null}
!909 = metadata !{i32 25, i32 0, metadata !901, null}
!910 = metadata !{i32 459008, metadata !901, metadata !"tmp2", metadata !866, i32 19, metadata !868} ; [ DW_TAG_auto_variable ]
!911 = metadata !{i32 26, i32 0, metadata !901, null}
!912 = metadata !{i32 27, i32 0, metadata !901, null}
!913 = metadata !{i32 28, i32 0, metadata !901, null}
!914 = metadata !{i32 29, i32 0, metadata !901, null}
!915 = metadata !{i32 459008, metadata !901, metadata !"j", metadata !866, i32 20, metadata !916} ; [ DW_TAG_auto_variable ]
!916 = metadata !{i32 458788, metadata !865, metadata !"int", metadata !865, i32 0, i64 32, i64 32, i64 0, i32 0, i32 5} ; [ DW_TAG_base_type ]
!917 = metadata !{i32 459008, metadata !901, metadata !"i", metadata !866, i32 20, metadata !916} ; [ DW_TAG_auto_variable ]
!918 = metadata !{i32 35, i32 0, metadata !901, null}
